ccopy_reg
_reconstructor
p1
(cpsychopy.data
ExperimentHandler
p2
c__builtin__
object
p3
NtRp4
(dp5
S'originPath'
p6
V/Users/casillas/google_drive/14_fall_2014/proseminar/psychopy2_workshop/demos/6_2AFC/beat_2AFC.psyexp
p7
sS'dataFileName'
p8
V/Users/casillas/google_drive/14_fall_2014/proseminar/psychopy2_workshop/demos/6_2AFC/data/_2014_oct_24_0813
p9
sS'runtimeInfo'
p10
NsS'name'
p11
Vbeat_2AFC
p12
sS'dataNames'
p13
(lp14
S'key_resp_practice.keys'
p15
aS'key_resp_practice.rt'
p16
asS'autoLog'
p17
I01
sS'extraInfo'
p18
(dp19
S'date'
p20
V2014_oct_24_0813
p21
sS'frameRate'
p22
cnumpy.core.multiarray
scalar
p23
(cnumpy
dtype
p24
(S'f8'
I0
I1
tRp25
(I3
S'<'
NNNI-1
I-1
I0
tbS'\xa1X&w\x05\xfcM@'
tRp26
sS'expName'
p27
g12
sVsession
p28
V001
p29
sVparticipant
p30
V
ssS'loopsUnfinished'
p31
(lp32
g1
(cpsychopy.data
TrialHandler
p33
g3
NtRp34
(dp35
S'origin'
p36
V<PsychoPy2experiment version="1.81.00" encoding="utf-8">\u000a  <Settings>\u000a    <Param name="Show mouse" val="False" valType="bool" updates="None"/>\u000a    <Param name="Data filename" val="u'data' + os.path.sep + '%s_%s' %(expInfo['participant'], expInfo['date'])" valType="code" updates="None"/>\u000a    <Param name="Monitor" val="testMonitor" valType="str" updates="None"/>\u000a    <Param name="Enable Escape" val="True" valType="bool" updates="None"/>\u000a    <Param name="color" val="$[0,0,0]" valType="str" updates="None"/>\u000a    <Param name="Window size (pixels)" val="[800, 600]" valType="code" updates="None"/>\u000a    <Param name="Full-screen window" val="True" valType="bool" updates="None"/>\u000a    <Param name="colorSpace" val="rgb" valType="str" updates="None"/>\u000a    <Param name="Experiment info" val="{u'session': u'001', u'participant': u''}" valType="code" updates="None"/>\u000a    <Param name="Save csv file" val="True" valType="bool" updates="None"/>\u000a    <Param name="Show info dlg" val="True" valType="bool" updates="None"/>\u000a    <Param name="Save wide csv file" val="True" valType="bool" updates="None"/>\u000a    <Param name="Save psydat file" val="True" valType="bool" updates="None"/>\u000a    <Param name="expName" val="beat_2AFC" valType="str" updates="None"/>\u000a    <Param name="logging level" val="exp" valType="code" updates="None"/>\u000a    <Param name="blendMode" val="avg" valType="str" updates="None"/>\u000a    <Param name="Save excel file" val="True" valType="bool" updates="None"/>\u000a    <Param name="Units" val="use prefs" valType="str" updates="None"/>\u000a    <Param name="Save log file" val="True" valType="bool" updates="None"/>\u000a    <Param name="Screen" val="1" valType="num" updates="None"/>\u000a  </Settings>\u000a  <Routines>\u000a    <Routine name="end">\u000a      <TextComponent name="done">\u000a        <Param name="opacity" val="1" valType="code" updates="constant"/>\u000a        <Param name="colorSpace" val="rgb" valType="str" updates="constant"/>\u000a        <Param name="name" val="done" valType="code" updates="None"/>\u000a        <Param name="wrapWidth" val="" valType="code" updates="constant"/>\u000a        <Param name="color" val="white" valType="str" updates="constant"/>\u000a        <Param name="text" val="That's it. Thanks you for participating." valType="str" updates="constant"/>\u000a        <Param name="stopVal" val="20.0" valType="code" updates="constant"/>\u000a        <Param name="durationEstim" val="" valType="code" updates="None"/>\u000a        <Param name="pos" val="[0, 0]" valType="code" updates="constant"/>\u000a        <Param name="flip" val="" valType="str" updates="constant"/>\u000a        <Param name="startEstim" val="" valType="code" updates="None"/>\u000a        <Param name="units" val="from exp settings" valType="str" updates="None"/>\u000a        <Param name="startType" val="time (s)" valType="str" updates="None"/>\u000a        <Param name="ori" val="0" valType="code" updates="constant"/>\u000a        <Param name="stopType" val="duration (s)" valType="str" updates="None"/>\u000a        <Param name="startVal" val="0.0" valType="code" updates="None"/>\u000a        <Param name="font" val="Arial" valType="str" updates="constant"/>\u000a        <Param name="letterHeight" val="0.1" valType="code" updates="constant"/>\u000a      </TextComponent>\u000a      <KeyboardComponent name="doneKey">\u000a        <Param name="correctAns" val="" valType="str" updates="constant"/>\u000a        <Param name="storeCorrect" val="False" valType="bool" updates="constant"/>\u000a        <Param name="name" val="doneKey" valType="code" updates="None"/>\u000a        <Param name="stopVal" val="20.0" valType="code" updates="constant"/>\u000a        <Param name="durationEstim" val="" valType="code" updates="None"/>\u000a        <Param name="forceEndRoutine" val="True" valType="bool" updates="constant"/>\u000a        <Param name="startEstim" val="" valType="code" updates="None"/>\u000a        <Param name="discard previous" val="True" valType="bool" updates="constant"/>\u000a        <Param name="startType" val="time (s)" valType="str" updates="None"/>\u000a        <Param name="allowedKeys" val="'space'" valType="code" updates="constant"/>\u000a        <Param name="stopType" val="duration (s)" valType="str" updates="None"/>\u000a        <Param name="startVal" val="1.0" valType="code" updates="None"/>\u000a        <Param name="store" val="nothing" valType="str" updates="constant"/>\u000a      </KeyboardComponent>\u000a    </Routine>\u000a    <Routine name="msg2">\u000a      <CodeComponent name="code_2">\u000a        <Param name="Begin Experiment" val="msg='0.000'" valType="extendedCode" updates="constant"/>\u000a        <Param name="name" val="code_2" valType="code" updates="None"/>\u000a        <Param name="Begin Routine" val="msg=&quot;%.3f&quot; %(key_resp_trial.rt)" valType="extendedCode" updates="constant"/>\u000a        <Param name="End Routine" val="" valType="extendedCode" updates="constant"/>\u000a        <Param name="End Experiment" val="" valType="extendedCode" updates="constant"/>\u000a        <Param name="Each Frame" val="" valType="extendedCode" updates="constant"/>\u000a      </CodeComponent>\u000a      <TextComponent name="text_2">\u000a        <Param name="opacity" val="1" valType="code" updates="constant"/>\u000a        <Param name="colorSpace" val="rgb" valType="str" updates="constant"/>\u000a        <Param name="name" val="text_2" valType="code" updates="None"/>\u000a        <Param name="wrapWidth" val="" valType="code" updates="constant"/>\u000a        <Param name="color" val="white" valType="str" updates="constant"/>\u000a        <Param name="text" val="$msg" valType="str" updates="set every repeat"/>\u000a        <Param name="stopVal" val="1.0" valType="code" updates="constant"/>\u000a        <Param name="durationEstim" val="" valType="code" updates="None"/>\u000a        <Param name="pos" val="[0, 0]" valType="code" updates="constant"/>\u000a        <Param name="flip" val="" valType="str" updates="constant"/>\u000a        <Param name="startEstim" val="" valType="code" updates="None"/>\u000a        <Param name="units" val="from exp settings" valType="str" updates="None"/>\u000a        <Param name="startType" val="time (s)" valType="str" updates="None"/>\u000a        <Param name="ori" val="0" valType="code" updates="constant"/>\u000a        <Param name="stopType" val="duration (s)" valType="str" updates="None"/>\u000a        <Param name="startVal" val="0.0" valType="code" updates="None"/>\u000a        <Param name="font" val="Arial" valType="str" updates="constant"/>\u000a        <Param name="letterHeight" val="0.1" valType="code" updates="constant"/>\u000a      </TextComponent>\u000a    </Routine>\u000a    <Routine name="practice">\u000a      <TextComponent name="crossPractice">\u000a        <Param name="opacity" val="1" valType="code" updates="constant"/>\u000a        <Param name="colorSpace" val="rgb" valType="str" updates="constant"/>\u000a        <Param name="name" val="crossPractice" valType="code" updates="None"/>\u000a        <Param name="wrapWidth" val="" valType="code" updates="constant"/>\u000a        <Param name="color" val="red" valType="str" updates="constant"/>\u000a        <Param name="text" val="+" valType="str" updates="constant"/>\u000a        <Param name="stopVal" val="0.4" valType="code" updates="constant"/>\u000a        <Param name="durationEstim" val="" valType="code" updates="None"/>\u000a        <Param name="pos" val="[0, 0]" valType="code" updates="constant"/>\u000a        <Param name="flip" val="" valType="str" updates="constant"/>\u000a        <Param name="startEstim" val="" valType="code" updates="None"/>\u000a        <Param name="units" val="from exp settings" valType="str" updates="None"/>\u000a        <Param name="startType" val="time (s)" valType="str" updates="None"/>\u000a        <Param name="ori" val="0" valType="code" updates="constant"/>\u000a        <Param name="stopType" val="duration (s)" valType="str" updates="None"/>\u000a        <Param name="startVal" val="0.0" valType="code" updates="None"/>\u000a        <Param name="font" val="Arial" valType="str" updates="constant"/>\u000a        <Param name="letterHeight" val="0.5" valType="code" updates="constant"/>\u000a      </TextComponent>\u000a      <SoundComponent name="practice_sound">\u000a        <Param name="sound" val="$stimuli" valType="str" updates="set every repeat"/>\u000a        <Param name="volume" val="1" valType="code" updates="constant"/>\u000a        <Param name="name" val="practice_sound" valType="code" updates="None"/>\u000a        <Param name="stopVal" val="3.0" valType="code" updates="constant"/>\u000a        <Param name="durationEstim" val="" valType="code" updates="None"/>\u000a        <Param name="startEstim" val="" valType="code" updates="None"/>\u000a        <Param name="startType" val="time (s)" valType="str" updates="None"/>\u000a        <Param name="stopType" val="duration (s)" valType="str" updates="None"/>\u000a        <Param name="startVal" val="0.5" valType="code" updates="None"/>\u000a      </SoundComponent>\u000a      <KeyboardComponent name="key_resp_practice">\u000a        <Param name="correctAns" val="" valType="str" updates="constant"/>\u000a        <Param name="storeCorrect" val="False" valType="bool" updates="constant"/>\u000a        <Param name="name" val="key_resp_practice" valType="code" updates="None"/>\u000a        <Param name="stopVal" val="3.0" valType="code" updates="constant"/>\u000a        <Param name="durationEstim" val="" valType="code" updates="None"/>\u000a        <Param name="forceEndRoutine" val="True" valType="bool" updates="constant"/>\u000a        <Param name="startEstim" val="" valType="code" updates="None"/>\u000a        <Param name="discard previous" val="True" valType="bool" updates="constant"/>\u000a        <Param name="startType" val="time (s)" valType="str" updates="None"/>\u000a        <Param name="allowedKeys" val="'left','right'" valType="code" updates="set every repeat"/>\u000a        <Param name="stopType" val="duration (s)" valType="str" updates="None"/>\u000a        <Param name="startVal" val="0.5" valType="code" updates="None"/>\u000a        <Param name="store" val="first key" valType="str" updates="constant"/>\u000a      </KeyboardComponent>\u000a      <ImageComponent name="sheep_image">\u000a        <Param name="opacity" val="1" valType="code" updates="constant"/>\u000a        <Param name="flipVert" val="False" valType="bool" updates="constant"/>\u000a        <Param name="colorSpace" val="rgb" valType="str" updates="constant"/>\u000a        <Param name="name" val="sheep_image" valType="code" updates="constant"/>\u000a        <Param name="color" val="$[1,1,1]" valType="str" updates="constant"/>\u000a        <Param name="stopVal" val="3.0" valType="code" updates="constant"/>\u000a        <Param name="durationEstim" val="" valType="code" updates="None"/>\u000a        <Param name="mask" val="None" valType="str" updates="constant"/>\u000a        <Param name="pos" val="[-0.5, 0.3]" valType="code" updates="constant"/>\u000a        <Param name="interpolate" val="linear" valType="str" updates="constant"/>\u000a        <Param name="startEstim" val="" valType="code" updates="None"/>\u000a        <Param name="units" val="from exp settings" valType="str" updates="None"/>\u000a        <Param name="texture resolution" val="128" valType="code" updates="constant"/>\u000a        <Param name="startType" val="time (s)" valType="str" updates="None"/>\u000a        <Param name="ori" val="0" valType="code" updates="constant"/>\u000a        <Param name="stopType" val="duration (s)" valType="str" updates="None"/>\u000a        <Param name="startVal" val="0.5" valType="code" updates="None"/>\u000a        <Param name="flipHoriz" val="False" valType="bool" updates="constant"/>\u000a        <Param name="image" val="sheep1.jpg" valType="str" updates="constant"/>\u000a        <Param name="size" val="[0.5, 0.5]" valType="code" updates="constant"/>\u000a      </ImageComponent>\u000a      <ImageComponent name="ship_image">\u000a        <Param name="opacity" val="1" valType="code" updates="constant"/>\u000a        <Param name="flipVert" val="False" valType="bool" updates="constant"/>\u000a        <Param name="colorSpace" val="rgb" valType="str" updates="constant"/>\u000a        <Param name="name" val="ship_image" valType="code" updates="constant"/>\u000a        <Param name="color" val="$[1,1,1]" valType="str" updates="constant"/>\u000a        <Param name="stopVal" val="3.0" valType="code" updates="constant"/>\u000a        <Param name="durationEstim" val="" valType="code" updates="None"/>\u000a        <Param name="mask" val="None" valType="str" updates="constant"/>\u000a        <Param name="pos" val="[0.5, 0.3]" valType="code" updates="constant"/>\u000a        <Param name="interpolate" val="linear" valType="str" updates="constant"/>\u000a        <Param name="startEstim" val="" valType="code" updates="None"/>\u000a        <Param name="units" val="from exp settings" valType="str" updates="None"/>\u000a        <Param name="texture resolution" val="128" valType="code" updates="constant"/>\u000a        <Param name="startType" val="time (s)" valType="str" updates="None"/>\u000a        <Param name="ori" val="0" valType="code" updates="constant"/>\u000a        <Param name="stopType" val="duration (s)" valType="str" updates="None"/>\u000a        <Param name="startVal" val="0.5" valType="code" updates="None"/>\u000a        <Param name="flipHoriz" val="False" valType="bool" updates="constant"/>\u000a        <Param name="image" val="ship1.jpg" valType="str" updates="constant"/>\u000a        <Param name="size" val="[0.5, 0.5]" valType="code" updates="constant"/>\u000a      </ImageComponent>\u000a      <TextComponent name="practice_left">\u000a        <Param name="opacity" val="1" valType="code" updates="constant"/>\u000a        <Param name="colorSpace" val="rgb" valType="str" updates="constant"/>\u000a        <Param name="name" val="practice_left" valType="code" updates="None"/>\u000a        <Param name="wrapWidth" val="" valType="code" updates="constant"/>\u000a        <Param name="color" val="white" valType="str" updates="constant"/>\u000a        <Param name="text" val="L" valType="str" updates="constant"/>\u000a        <Param name="stopVal" val="3.0" valType="code" updates="constant"/>\u000a        <Param name="durationEstim" val="" valType="code" updates="None"/>\u000a        <Param name="pos" val="[-0.5, -0.3]" valType="code" updates="constant"/>\u000a        <Param name="flip" val="" valType="str" updates="constant"/>\u000a        <Param name="startEstim" val="" valType="code" updates="None"/>\u000a        <Param name="units" val="from exp settings" valType="str" updates="None"/>\u000a        <Param name="startType" val="time (s)" valType="str" updates="None"/>\u000a        <Param name="ori" val="0" valType="code" updates="constant"/>\u000a        <Param name="stopType" val="duration (s)" valType="str" updates="None"/>\u000a        <Param name="startVal" val="0.5" valType="code" updates="None"/>\u000a        <Param name="font" val="Arial" valType="str" updates="constant"/>\u000a        <Param name="letterHeight" val="0.1" valType="code" updates="constant"/>\u000a      </TextComponent>\u000a      <TextComponent name="practice_right">\u000a        <Param name="opacity" val="1" valType="code" updates="constant"/>\u000a        <Param name="colorSpace" val="rgb" valType="str" updates="constant"/>\u000a        <Param name="name" val="practice_right" valType="code" updates="None"/>\u000a        <Param name="wrapWidth" val="" valType="code" updates="constant"/>\u000a        <Param name="color" val="white" valType="str" updates="constant"/>\u000a        <Param name="text" val="R" valType="str" updates="constant"/>\u000a        <Param name="stopVal" val="3.0" valType="code" updates="constant"/>\u000a        <Param name="durationEstim" val="" valType="code" updates="None"/>\u000a        <Param name="pos" val="[0.5, -0.3]" valType="code" updates="constant"/>\u000a        <Param name="flip" val="" valType="str" updates="constant"/>\u000a        <Param name="startEstim" val="" valType="code" updates="None"/>\u000a        <Param name="units" val="from exp settings" valType="str" updates="None"/>\u000a        <Param name="startType" val="time (s)" valType="str" updates="None"/>\u000a        <Param name="ori" val="0" valType="code" updates="constant"/>\u000a        <Param name="stopType" val="duration (s)" valType="str" updates="None"/>\u000a        <Param name="startVal" val="0.5" valType="code" updates="None"/>\u000a        <Param name="font" val="Arial" valType="str" updates="constant"/>\u000a        <Param name="letterHeight" val="0.1" valType="code" updates="constant"/>\u000a      </TextComponent>\u000a    </Routine>\u000a    <Routine name="cross">\u000a      <TextComponent name="cross_trial">\u000a        <Param name="opacity" val="1" valType="code" updates="constant"/>\u000a        <Param name="colorSpace" val="rgb" valType="str" updates="constant"/>\u000a        <Param name="name" val="cross_trial" valType="code" updates="None"/>\u000a        <Param name="wrapWidth" val="" valType="code" updates="constant"/>\u000a        <Param name="color" val="red" valType="str" updates="constant"/>\u000a        <Param name="text" val="+" valType="str" updates="constant"/>\u000a        <Param name="stopVal" val=".75" valType="code" updates="constant"/>\u000a        <Param name="durationEstim" val="" valType="code" updates="None"/>\u000a        <Param name="pos" val="[0, 0]" valType="code" updates="constant"/>\u000a        <Param name="flip" val="" valType="str" updates="constant"/>\u000a        <Param name="startEstim" val="" valType="code" updates="None"/>\u000a        <Param name="units" val="from exp settings" valType="str" updates="None"/>\u000a        <Param name="startType" val="time (s)" valType="str" updates="None"/>\u000a        <Param name="ori" val="0" valType="code" updates="constant"/>\u000a        <Param name="stopType" val="duration (s)" valType="str" updates="None"/>\u000a        <Param name="startVal" val="0.25" valType="code" updates="None"/>\u000a        <Param name="font" val="Arial" valType="str" updates="constant"/>\u000a        <Param name="letterHeight" val="0.5" valType="code" updates="constant"/>\u000a      </TextComponent>\u000a    </Routine>\u000a    <Routine name="Break">\u000a      <CodeComponent name="code">\u000a        <Param name="Begin Experiment" val="" valType="extendedCode" updates="constant"/>\u000a        <Param name="name" val="code" valType="code" updates="None"/>\u000a        <Param name="Begin Routine" val="" valType="extendedCode" updates="constant"/>\u000a        <Param name="End Routine" val="" valType="extendedCode" updates="constant"/>\u000a        <Param name="End Experiment" val="" valType="extendedCode" updates="constant"/>\u000a        <Param name="Each Frame" val="if trials.thisN not in [100,200,300,400,500,600,700,800]:&#10;    continueRoutine=False" valType="extendedCode" updates="constant"/>\u000a      </CodeComponent>\u000a      <TextComponent name="break_text">\u000a        <Param name="opacity" val="1" valType="code" updates="constant"/>\u000a        <Param name="colorSpace" val="rgb" valType="str" updates="constant"/>\u000a        <Param name="name" val="break_text" valType="code" updates="None"/>\u000a        <Param name="wrapWidth" val="" valType="code" updates="constant"/>\u000a        <Param name="color" val="white" valType="str" updates="constant"/>\u000a        <Param name="text" val="You may take a short break if you like. &#10;Press the spacebar to continue." valType="str" updates="constant"/>\u000a        <Param name="stopVal" val="20.0" valType="code" updates="constant"/>\u000a        <Param name="durationEstim" val="" valType="code" updates="None"/>\u000a        <Param name="pos" val="[0, 0]" valType="code" updates="constant"/>\u000a        <Param name="flip" val="" valType="str" updates="constant"/>\u000a        <Param name="startEstim" val="" valType="code" updates="None"/>\u000a        <Param name="units" val="from exp settings" valType="str" updates="None"/>\u000a        <Param name="startType" val="time (s)" valType="str" updates="None"/>\u000a        <Param name="ori" val="0" valType="code" updates="constant"/>\u000a        <Param name="stopType" val="duration (s)" valType="str" updates="None"/>\u000a        <Param name="startVal" val="0.5" valType="code" updates="None"/>\u000a        <Param name="font" val="Arial" valType="str" updates="constant"/>\u000a        <Param name="letterHeight" val="0.1" valType="code" updates="constant"/>\u000a      </TextComponent>\u000a      <KeyboardComponent name="key_resp_break">\u000a        <Param name="correctAns" val="" valType="str" updates="constant"/>\u000a        <Param name="storeCorrect" val="False" valType="bool" updates="constant"/>\u000a        <Param name="name" val="key_resp_break" valType="code" updates="None"/>\u000a        <Param name="stopVal" val="20.0" valType="code" updates="constant"/>\u000a        <Param name="durationEstim" val="" valType="code" updates="None"/>\u000a        <Param name="forceEndRoutine" val="True" valType="bool" updates="constant"/>\u000a        <Param name="startEstim" val="" valType="code" updates="None"/>\u000a        <Param name="discard previous" val="True" valType="bool" updates="constant"/>\u000a        <Param name="startType" val="time (s)" valType="str" updates="None"/>\u000a        <Param name="allowedKeys" val="'space'" valType="code" updates="constant"/>\u000a        <Param name="stopType" val="duration (s)" valType="str" updates="None"/>\u000a        <Param name="startVal" val="0.5" valType="code" updates="None"/>\u000a        <Param name="store" val="nothing" valType="str" updates="constant"/>\u000a      </KeyboardComponent>\u000a    </Routine>\u000a    <Routine name="trial">\u000a      <TextComponent name="cross_tr">\u000a        <Param name="opacity" val="1" valType="code" updates="constant"/>\u000a        <Param name="colorSpace" val="rgb" valType="str" updates="constant"/>\u000a        <Param name="name" val="cross_tr" valType="code" updates="None"/>\u000a        <Param name="wrapWidth" val="" valType="code" updates="constant"/>\u000a        <Param name="color" val="red" valType="str" updates="constant"/>\u000a        <Param name="text" val="+" valType="str" updates="constant"/>\u000a        <Param name="stopVal" val="0.4" valType="code" updates="constant"/>\u000a        <Param name="durationEstim" val="" valType="code" updates="None"/>\u000a        <Param name="pos" val="[0, 0]" valType="code" updates="constant"/>\u000a        <Param name="flip" val="" valType="str" updates="constant"/>\u000a        <Param name="startEstim" val="" valType="code" updates="None"/>\u000a        <Param name="units" val="from exp settings" valType="str" updates="None"/>\u000a        <Param name="startType" val="time (s)" valType="str" updates="None"/>\u000a        <Param name="ori" val="0" valType="code" updates="constant"/>\u000a        <Param name="stopType" val="duration (s)" valType="str" updates="None"/>\u000a        <Param name="startVal" val="0.0" valType="code" updates="None"/>\u000a        <Param name="font" val="Arial" valType="str" updates="constant"/>\u000a        <Param name="letterHeight" val="0.5" valType="code" updates="constant"/>\u000a      </TextComponent>\u000a      <SoundComponent name="trial_sound">\u000a        <Param name="sound" val="$stimuli" valType="str" updates="set every repeat"/>\u000a        <Param name="volume" val="1" valType="code" updates="constant"/>\u000a        <Param name="name" val="trial_sound" valType="code" updates="None"/>\u000a        <Param name="stopVal" val="3.0" valType="code" updates="constant"/>\u000a        <Param name="durationEstim" val="" valType="code" updates="None"/>\u000a        <Param name="startEstim" val="" valType="code" updates="None"/>\u000a        <Param name="startType" val="time (s)" valType="str" updates="None"/>\u000a        <Param name="stopType" val="duration (s)" valType="str" updates="None"/>\u000a        <Param name="startVal" val="0.5" valType="code" updates="None"/>\u000a      </SoundComponent>\u000a      <KeyboardComponent name="key_resp_trial">\u000a        <Param name="correctAns" val="" valType="str" updates="constant"/>\u000a        <Param name="storeCorrect" val="False" valType="bool" updates="constant"/>\u000a        <Param name="name" val="key_resp_trial" valType="code" updates="None"/>\u000a        <Param name="stopVal" val="3.0" valType="code" updates="constant"/>\u000a        <Param name="durationEstim" val="" valType="code" updates="None"/>\u000a        <Param name="forceEndRoutine" val="True" valType="bool" updates="constant"/>\u000a        <Param name="startEstim" val="" valType="code" updates="None"/>\u000a        <Param name="discard previous" val="True" valType="bool" updates="constant"/>\u000a        <Param name="startType" val="time (s)" valType="str" updates="None"/>\u000a        <Param name="allowedKeys" val="'left','right'" valType="code" updates="set every repeat"/>\u000a        <Param name="stopType" val="duration (s)" valType="str" updates="None"/>\u000a        <Param name="startVal" val="0.5" valType="code" updates="None"/>\u000a        <Param name="store" val="first key" valType="str" updates="constant"/>\u000a      </KeyboardComponent>\u000a      <ImageComponent name="image_sheep">\u000a        <Param name="opacity" val="1" valType="code" updates="constant"/>\u000a        <Param name="flipVert" val="False" valType="bool" updates="constant"/>\u000a        <Param name="colorSpace" val="rgb" valType="str" updates="constant"/>\u000a        <Param name="name" val="image_sheep" valType="code" updates="constant"/>\u000a        <Param name="color" val="$[1,1,1]" valType="str" updates="constant"/>\u000a        <Param name="stopVal" val="3.0" valType="code" updates="constant"/>\u000a        <Param name="durationEstim" val="" valType="code" updates="None"/>\u000a        <Param name="mask" val="None" valType="str" updates="constant"/>\u000a        <Param name="pos" val="[-0.5, 0.3]" valType="code" updates="constant"/>\u000a        <Param name="interpolate" val="linear" valType="str" updates="constant"/>\u000a        <Param name="startEstim" val="" valType="code" updates="None"/>\u000a        <Param name="units" val="from exp settings" valType="str" updates="None"/>\u000a        <Param name="texture resolution" val="128" valType="code" updates="constant"/>\u000a        <Param name="startType" val="time (s)" valType="str" updates="None"/>\u000a        <Param name="ori" val="0" valType="code" updates="constant"/>\u000a        <Param name="stopType" val="duration (s)" valType="str" updates="None"/>\u000a        <Param name="startVal" val="0.5" valType="code" updates="None"/>\u000a        <Param name="flipHoriz" val="False" valType="bool" updates="constant"/>\u000a        <Param name="image" val="sheep.jpg" valType="str" updates="constant"/>\u000a        <Param name="size" val="[0.5, 0.5]" valType="code" updates="constant"/>\u000a      </ImageComponent>\u000a      <ImageComponent name="image_ship">\u000a        <Param name="opacity" val="1" valType="code" updates="constant"/>\u000a        <Param name="flipVert" val="False" valType="bool" updates="constant"/>\u000a        <Param name="colorSpace" val="rgb" valType="str" updates="constant"/>\u000a        <Param name="name" val="image_ship" valType="code" updates="constant"/>\u000a        <Param name="color" val="$[1,1,1]" valType="str" updates="constant"/>\u000a        <Param name="stopVal" val="3.0" valType="code" updates="constant"/>\u000a        <Param name="durationEstim" val="" valType="code" updates="None"/>\u000a        <Param name="mask" val="None" valType="str" updates="constant"/>\u000a        <Param name="pos" val="[0.5, 0.3]" valType="code" updates="constant"/>\u000a        <Param name="interpolate" val="linear" valType="str" updates="constant"/>\u000a        <Param name="startEstim" val="" valType="code" updates="None"/>\u000a        <Param name="units" val="from exp settings" valType="str" updates="None"/>\u000a        <Param name="texture resolution" val="128" valType="code" updates="constant"/>\u000a        <Param name="startType" val="time (s)" valType="str" updates="None"/>\u000a        <Param name="ori" val="0" valType="code" updates="constant"/>\u000a        <Param name="stopType" val="duration (s)" valType="str" updates="None"/>\u000a        <Param name="startVal" val="0.5" valType="code" updates="None"/>\u000a        <Param name="flipHoriz" val="False" valType="bool" updates="constant"/>\u000a        <Param name="image" val="ship.jpg" valType="str" updates="constant"/>\u000a        <Param name="size" val="[0.5, 0.5]" valType="code" updates="constant"/>\u000a      </ImageComponent>\u000a      <TextComponent name="left">\u000a        <Param name="opacity" val="1" valType="code" updates="constant"/>\u000a        <Param name="colorSpace" val="rgb" valType="str" updates="constant"/>\u000a        <Param name="name" val="left" valType="code" updates="None"/>\u000a        <Param name="wrapWidth" val="" valType="code" updates="constant"/>\u000a        <Param name="color" val="white" valType="str" updates="constant"/>\u000a        <Param name="text" val="L" valType="str" updates="constant"/>\u000a        <Param name="stopVal" val="3.0" valType="code" updates="constant"/>\u000a        <Param name="durationEstim" val="" valType="code" updates="None"/>\u000a        <Param name="pos" val="[-0.5, -0.3]" valType="code" updates="constant"/>\u000a        <Param name="flip" val="" valType="str" updates="constant"/>\u000a        <Param name="startEstim" val="" valType="code" updates="None"/>\u000a        <Param name="units" val="from exp settings" valType="str" updates="None"/>\u000a        <Param name="startType" val="time (s)" valType="str" updates="None"/>\u000a        <Param name="ori" val="0" valType="code" updates="constant"/>\u000a        <Param name="stopType" val="duration (s)" valType="str" updates="None"/>\u000a        <Param name="startVal" val="0.5" valType="code" updates="None"/>\u000a        <Param name="font" val="Arial" valType="str" updates="constant"/>\u000a        <Param name="letterHeight" val="0.1" valType="code" updates="constant"/>\u000a      </TextComponent>\u000a      <TextComponent name="right">\u000a        <Param name="opacity" val="1" valType="code" updates="constant"/>\u000a        <Param name="colorSpace" val="rgb" valType="str" updates="constant"/>\u000a        <Param name="name" val="right" valType="code" updates="None"/>\u000a        <Param name="wrapWidth" val="" valType="code" updates="constant"/>\u000a        <Param name="color" val="white" valType="str" updates="constant"/>\u000a        <Param name="text" val="R" valType="str" updates="constant"/>\u000a        <Param name="stopVal" val="3.0" valType="code" updates="constant"/>\u000a        <Param name="durationEstim" val="" valType="code" updates="None"/>\u000a        <Param name="pos" val="[0.5, -0.3]" valType="code" updates="constant"/>\u000a        <Param name="flip" val="" valType="str" updates="constant"/>\u000a        <Param name="startEstim" val="" valType="code" updates="None"/>\u000a        <Param name="units" val="from exp settings" valType="str" updates="None"/>\u000a        <Param name="startType" val="time (s)" valType="str" updates="None"/>\u000a        <Param name="ori" val="0" valType="code" updates="constant"/>\u000a        <Param name="stopType" val="duration (s)" valType="str" updates="None"/>\u000a        <Param name="startVal" val="0.5" valType="code" updates="None"/>\u000a        <Param name="font" val="Arial" valType="str" updates="constant"/>\u000a        <Param name="letterHeight" val="0.1" valType="code" updates="constant"/>\u000a      </TextComponent>\u000a    </Routine>\u000a    <Routine name="msg">\u000a      <CodeComponent name="code2">\u000a        <Param name="Begin Experiment" val="msg='0.000'" valType="extendedCode" updates="constant"/>\u000a        <Param name="name" val="code2" valType="code" updates="None"/>\u000a        <Param name="Begin Routine" val="msg=&quot;%.3f ...FASTER!&quot; %(key_resp_practice.rt)" valType="extendedCode" updates="constant"/>\u000a        <Param name="End Routine" val="" valType="extendedCode" updates="constant"/>\u000a        <Param name="End Experiment" val="" valType="extendedCode" updates="constant"/>\u000a        <Param name="Each Frame" val="" valType="extendedCode" updates="constant"/>\u000a      </CodeComponent>\u000a      <TextComponent name="text">\u000a        <Param name="opacity" val="1" valType="code" updates="constant"/>\u000a        <Param name="colorSpace" val="rgb" valType="str" updates="constant"/>\u000a        <Param name="name" val="text" valType="code" updates="None"/>\u000a        <Param name="wrapWidth" val="" valType="code" updates="constant"/>\u000a        <Param name="color" val="white" valType="str" updates="constant"/>\u000a        <Param name="text" val="$msg" valType="str" updates="set every repeat"/>\u000a        <Param name="stopVal" val="1.0" valType="code" updates="constant"/>\u000a        <Param name="durationEstim" val="" valType="code" updates="None"/>\u000a        <Param name="pos" val="[0, 0]" valType="code" updates="constant"/>\u000a        <Param name="flip" val="" valType="str" updates="constant"/>\u000a        <Param name="startEstim" val="" valType="code" updates="None"/>\u000a        <Param name="units" val="from exp settings" valType="str" updates="None"/>\u000a        <Param name="startType" val="time (s)" valType="str" updates="None"/>\u000a        <Param name="ori" val="0" valType="code" updates="constant"/>\u000a        <Param name="stopType" val="duration (s)" valType="str" updates="None"/>\u000a        <Param name="startVal" val="0.0" valType="code" updates="None"/>\u000a        <Param name="font" val="Arial" valType="str" updates="constant"/>\u000a        <Param name="letterHeight" val="0.1" valType="code" updates="constant"/>\u000a      </TextComponent>\u000a    </Routine>\u000a    <Routine name="got_it">\u000a      <TextComponent name="gotIT">\u000a        <Param name="opacity" val="1" valType="code" updates="constant"/>\u000a        <Param name="colorSpace" val="rgb" valType="str" updates="constant"/>\u000a        <Param name="name" val="gotIT" valType="code" updates="None"/>\u000a        <Param name="wrapWidth" val="" valType="code" updates="constant"/>\u000a        <Param name="color" val="white" valType="str" updates="constant"/>\u000a        <Param name="text" val="Got it? If you have any questions please ask the experimenter now. If not, press the spacebar to begin the experiment. " valType="str" updates="constant"/>\u000a        <Param name="stopVal" val="10.0" valType="code" updates="constant"/>\u000a        <Param name="durationEstim" val="" valType="code" updates="None"/>\u000a        <Param name="pos" val="[0, 0]" valType="code" updates="constant"/>\u000a        <Param name="flip" val="" valType="str" updates="constant"/>\u000a        <Param name="startEstim" val="" valType="code" updates="None"/>\u000a        <Param name="units" val="from exp settings" valType="str" updates="None"/>\u000a        <Param name="startType" val="time (s)" valType="str" updates="None"/>\u000a        <Param name="ori" val="0" valType="code" updates="constant"/>\u000a        <Param name="stopType" val="duration (s)" valType="str" updates="None"/>\u000a        <Param name="startVal" val="0.75" valType="code" updates="None"/>\u000a        <Param name="font" val="Arial" valType="str" updates="constant"/>\u000a        <Param name="letterHeight" val="0.1" valType="code" updates="constant"/>\u000a      </TextComponent>\u000a      <KeyboardComponent name="gotResponse">\u000a        <Param name="correctAns" val="" valType="str" updates="constant"/>\u000a        <Param name="storeCorrect" val="False" valType="bool" updates="constant"/>\u000a        <Param name="name" val="gotResponse" valType="code" updates="None"/>\u000a        <Param name="stopVal" val="10.0" valType="code" updates="constant"/>\u000a        <Param name="durationEstim" val="" valType="code" updates="None"/>\u000a        <Param name="forceEndRoutine" val="True" valType="bool" updates="constant"/>\u000a        <Param name="startEstim" val="" valType="code" updates="None"/>\u000a        <Param name="discard previous" val="True" valType="bool" updates="constant"/>\u000a        <Param name="startType" val="time (s)" valType="str" updates="None"/>\u000a        <Param name="allowedKeys" val="'space'" valType="code" updates="constant"/>\u000a        <Param name="stopType" val="duration (s)" valType="str" updates="None"/>\u000a        <Param name="startVal" val="1.0" valType="code" updates="None"/>\u000a        <Param name="store" val="nothing" valType="str" updates="constant"/>\u000a      </KeyboardComponent>\u000a    </Routine>\u000a    <Routine name="cross_practice">\u000a      <TextComponent name="crossTrial">\u000a        <Param name="opacity" val="1" valType="code" updates="constant"/>\u000a        <Param name="colorSpace" val="rgb" valType="str" updates="constant"/>\u000a        <Param name="name" val="crossTrial" valType="code" updates="None"/>\u000a        <Param name="wrapWidth" val="" valType="code" updates="constant"/>\u000a        <Param name="color" val="red" valType="str" updates="constant"/>\u000a        <Param name="text" val="+" valType="str" updates="constant"/>\u000a        <Param name="stopVal" val="0.4" valType="code" updates="constant"/>\u000a        <Param name="durationEstim" val="" valType="code" updates="None"/>\u000a        <Param name="pos" val="[0, 0]" valType="code" updates="constant"/>\u000a        <Param name="flip" val="" valType="str" updates="constant"/>\u000a        <Param name="startEstim" val="" valType="code" updates="None"/>\u000a        <Param name="units" val="from exp settings" valType="str" updates="None"/>\u000a        <Param name="startType" val="time (s)" valType="str" updates="None"/>\u000a        <Param name="ori" val="0" valType="code" updates="constant"/>\u000a        <Param name="stopType" val="duration (s)" valType="str" updates="None"/>\u000a        <Param name="startVal" val="0" valType="code" updates="None"/>\u000a        <Param name="font" val="Arial" valType="str" updates="constant"/>\u000a        <Param name="letterHeight" val="0.5" valType="code" updates="constant"/>\u000a      </TextComponent>\u000a    </Routine>\u000a    <Routine name="instructions">\u000a      <TextComponent name="instructions_text">\u000a        <Param name="opacity" val="1" valType="code" updates="constant"/>\u000a        <Param name="colorSpace" val="rgb" valType="str" updates="constant"/>\u000a        <Param name="name" val="instructions_text" valType="code" updates="None"/>\u000a        <Param name="wrapWidth" val="" valType="code" updates="constant"/>\u000a        <Param name="color" val="white" valType="str" updates="constant"/>\u000a        <Param name="text" val="In this experiment you are going to hear different words. Your task is to decide, as quickly as possible and without making mistakes, if what you heard sounds more like &quot;sheep&quot; or &quot;ship&quot;. &#10;&#10;You will use the arrow keys to make your decision. Let's do a practice round to make sure you understand. &#10;&#10;Press the spacebar to continue." valType="str" updates="constant"/>\u000a        <Param name="stopVal" val="30.0" valType="code" updates="constant"/>\u000a        <Param name="durationEstim" val="" valType="code" updates="None"/>\u000a        <Param name="pos" val="[0, 0]" valType="code" updates="constant"/>\u000a        <Param name="flip" val="" valType="str" updates="constant"/>\u000a        <Param name="startEstim" val="" valType="code" updates="None"/>\u000a        <Param name="units" val="from exp settings" valType="str" updates="None"/>\u000a        <Param name="startType" val="time (s)" valType="str" updates="None"/>\u000a        <Param name="ori" val="0" valType="code" updates="constant"/>\u000a        <Param name="stopType" val="duration (s)" valType="str" updates="None"/>\u000a        <Param name="startVal" val="0.0" valType="code" updates="None"/>\u000a        <Param name="font" val="Arial" valType="str" updates="constant"/>\u000a        <Param name="letterHeight" val="0.1" valType="code" updates="constant"/>\u000a      </TextComponent>\u000a      <KeyboardComponent name="key_resp_2">\u000a        <Param name="correctAns" val="" valType="str" updates="constant"/>\u000a        <Param name="storeCorrect" val="False" valType="bool" updates="constant"/>\u000a        <Param name="name" val="key_resp_2" valType="code" updates="None"/>\u000a        <Param name="stopVal" val="30.0" valType="code" updates="constant"/>\u000a        <Param name="durationEstim" val="" valType="code" updates="None"/>\u000a        <Param name="forceEndRoutine" val="True" valType="bool" updates="constant"/>\u000a        <Param name="startEstim" val="" valType="code" updates="None"/>\u000a        <Param name="discard previous" val="True" valType="bool" updates="constant"/>\u000a        <Param name="startType" val="time (s)" valType="str" updates="None"/>\u000a        <Param name="allowedKeys" val="'space'" valType="code" updates="constant"/>\u000a        <Param name="stopType" val="duration (s)" valType="str" updates="None"/>\u000a        <Param name="startVal" val="0.0" valType="code" updates="None"/>\u000a        <Param name="store" val="nothing" valType="str" updates="constant"/>\u000a      </KeyboardComponent>\u000a    </Routine>\u000a  </Routines>\u000a  <Flow>\u000a    <Routine name="instructions"/>\u000a    <LoopInitiator loopType="TrialHandler" name="practice_trial">\u000a      <Param name="conditionsFile" val="practice_trial.xlsx" valType="str" updates="None"/>\u000a      <Param name="name" val="practice_trial" valType="code" updates="None"/>\u000a      <Param name="isTrials" val="True" valType="bool" updates="None"/>\u000a      <Param name="random seed" val="" valType="code" updates="None"/>\u000a      <Param name="loopType" val="random" valType="str" updates="None"/>\u000a      <Param name="nReps" val="1" valType="code" updates="None"/>\u000a      <Param name="endPoints" val="[0, 1]" valType="num" updates="None"/>\u000a      <Param name="conditions" val="[{u'stimuli': u'beat_0.wav'}, {u'stimuli': u'beat_1.wav'}, {u'stimuli': u'beat_9.wav'}, {u'stimuli': u'beat_10.wav'}]" valType="str" updates="None"/>\u000a      <Param name="Selected rows" val="" valType="code" updates="None"/>\u000a    </LoopInitiator>\u000a    <Routine name="practice"/>\u000a    <Routine name="msg"/>\u000a    <LoopTerminator name="practice_trial"/>\u000a    <Routine name="got_it"/>\u000a    <LoopInitiator loopType="TrialHandler" name="trials">\u000a      <Param name="conditionsFile" val="trial.xlsx" valType="str" updates="None"/>\u000a      <Param name="name" val="trials" valType="code" updates="None"/>\u000a      <Param name="isTrials" val="True" valType="bool" updates="None"/>\u000a      <Param name="random seed" val="" valType="code" updates="None"/>\u000a      <Param name="loopType" val="random" valType="str" updates="None"/>\u000a      <Param name="nReps" val="3" valType="code" updates="None"/>\u000a      <Param name="endPoints" val="[0, 1]" valType="num" updates="None"/>\u000a      <Param name="conditions" val="[{u'stimuli': u'beat_0.wav'}, {u'stimuli': u'beat_1.wav'}, {u'stimuli': u'beat_2.wav'}, {u'stimuli': u'beat_3.wav'}, {u'stimuli': u'beat_4.wav'}, {u'stimuli': u'beat_5.wav'}, {u'stimuli': u'beat_6.wav'}, {u'stimuli': u'beat_7.wav'}, {u'stimuli': u'beat_8.wav'}, {u'stimuli': u'beat_9.wav'}, {u'stimuli': u'beat_10.wav'}]" valType="str" updates="None"/>\u000a      <Param name="Selected rows" val="" valType="code" updates="None"/>\u000a    </LoopInitiator>\u000a    <Routine name="Break"/>\u000a    <Routine name="trial"/>\u000a    <Routine name="msg2"/>\u000a    <LoopTerminator name="trials"/>\u000a    <Routine name="end"/>\u000a  </Flow>\u000a</PsychoPy2experiment>\u000a
p37
sS'thisTrial'
p38
g1
(cpsychopy.data
TrialType
p39
c__builtin__
dict
p40
(dp41
Vstimuli
p42
Vfinal_0_5.wav
p43
stRp44
sS'_exp'
p45
I191157360
sg11
S'trials'
p46
sg6
g7
sS'thisRepN'
p47
I0
sg17
I01
sg18
g19
sS'data'
p48
g1
(cpsychopy.data
DataHandler
p49
g40
(dp50
S'ran'
p51
cnumpy.ma.core
_mareconstruct
p52
(cnumpy.ma.core
MaskedArray
p53
cnumpy
ndarray
p54
(I0
tp55
S'b'
tRp56
(I1
(I121
I3
tg24
(S'f4'
I0
I1
tRp57
(I3
S'<'
NNNI-1
I-1
I0
tbI00
S'\x00\x00\x00\x00\x00\x00\x00\x00\x00\x00\x00\x00\x00\x00\x00\x00\x00\x00\x00\x00\x00\x00\x00\x00\x00\x00\x00\x00\x00\x00\x00\x00\x00\x00\x00\x00\x00\x00\x00\x00\x00\x00\x00\x00\x00\x00\x00\x00\x00\x00\x00\x00\x00\x00\x00\x00\x00\x00\x00\x00\x00\x00\x80?\x00\x00\x00\x00\x00\x00\x00\x00\x00\x00\x00\x00\x00\x00\x00\x00\x00\x00\x00\x00\x00\x00\x00\x00\x00\x00\x00\x00\x00\x00\x00\x00\x00\x00\x00\x00\x00\x00\x00\x00\x00\x00\x00\x00\x00\x00\x00\x00\x00\x00\x00\x00\x00\x00\x00\x00\x00\x00\x00\x00\x00\x00\x00\x00\x00\x00\x00\x00\x00\x00\x00\x00\x00\x00\x00\x00\x00\x00\x00\x00\x00\x00\x00\x00\x00\x00\x00\x00\x00\x00\x00\x00\x00\x00\x00\x00\x00\x00\x00\x00\x00\x00\x00\x00\x00\x00\x00\x00\x00\x00\x00\x00\x00\x00\x00\x00\x00\x00\x00\x00\x00\x00\x00\x00\x00\x00\x00\x00\x00\x00\x00\x00\x00\x00\x00\x00\x00\x00\x00\x00\x00\x00\x00\x00\x00\x00\x00\x00\x00\x00\x00\x00\x00\x00\x00\x00\x00\x00\x00\x00\x00\x00\x00\x00\x00\x00\x00\x00\x00\x00\x00\x00\x00\x00\x00\x00\x00\x00\x00\x00\x00\x00\x00\x00\x00\x00\x00\x00\x00\x00\x00\x00\x00\x00\x00\x00\x00\x00\x00\x00\x00\x00\x00\x00\x00\x00\x00\x00\x00\x00\x00\x00\x00\x00\x00\x00\x00\x00\x00\x00\x00\x00\x00\x00\x00\x00\x00\x00\x00\x00\x00\x00\x00\x00\x00\x00\x00\x00\x00\x00\x00\x00\x00\x00\x00\x00\x00\x00\x00\x00\x00\x00\x00\x00\x00\x00\x00\x00\x00\x00\x00\x00\x00\x00\x00\x00\x00\x00\x00\x00\x00\x00\x00\x00\x00\x00\x00\x00\x00\x00\x00\x00\x00\x00\x00\x00\x00\x00\x00\x00\x00\x00\x00\x00\x00\x00\x00\x00\x00\x00\x00\x00\x00\x00\x00\x00\x00\x00\x00\x00\x00\x00\x00\x00\x00\x00\x00\x00\x00\x00\x00\x00\x00\x00\x00\x00\x00\x00\x00\x00\x00\x00\x00\x00\x00\x00\x00\x00\x00\x00\x00\x00\x00\x00\x00\x00\x00\x00\x00\x00\x00\x00\x00\x00\x00\x00\x00\x00\x00\x00\x00\x00\x00\x00\x00\x00\x00\x00\x00\x00\x00\x00\x00\x00\x00\x00\x00\x00\x00\x00\x00\x00\x00\x00\x00\x00\x00\x00\x00\x00\x00\x00\x00\x00\x00\x00\x00\x00\x00\x00\x00\x00\x00\x00\x00\x00\x00\x00\x00\x00\x00\x00\x00\x00\x00\x00\x00\x00\x00\x00\x00\x00\x00\x00\x00\x00\x00\x00\x00\x00\x00\x00\x00\x00\x00\x00\x00\x00\x00\x00\x00\x00\x00\x00\x00\x00\x00\x00\x00\x00\x00\x00\x00\x00\x00\x00\x00\x00\x00\x00\x00\x00\x00\x00\x00\x00\x00\x00\x00\x00\x00\x00\x00\x00\x00\x00\x00\x00\x00\x00\x00\x00\x00\x00\x00\x00\x00\x00\x00\x00\x00\x00\x00\x00\x00\x00\x00\x00\x00\x00\x00\x00\x00\x00\x00\x00\x00\x00\x00\x00\x00\x00\x00\x00\x00\x00\x00\x00\x00\x00\x00\x00\x00\x00\x00\x00\x00\x00\x00\x00\x00\x00\x00\x00\x00\x00\x00\x00\x00\x00\x00\x00\x00\x00\x00\x00\x00\x00\x00\x00\x00\x00\x00\x00\x00\x00\x00\x00\x00\x00\x00\x00\x00\x00\x00\x00\x00\x00\x00\x00\x00\x00\x00\x00\x00\x00\x00\x00\x00\x00\x00\x00\x00\x00\x00\x00\x00\x00\x00\x00\x00\x00\x00\x00\x00\x00\x00\x00\x00\x00\x00\x00\x00\x00\x00\x00\x00\x00\x00\x00\x00\x00\x00\x00\x00\x00\x00\x00\x00\x00\x00\x00\x00\x00\x00\x00\x00\x00\x00\x00\x00\x00\x00\x00\x00\x00\x00\x00\x00\x00\x00\x00\x00\x00\x00\x00\x00\x00\x00\x00\x00\x00\x00\x00\x00\x00\x00\x00\x00\x00\x00\x00\x00\x00\x00\x00\x00\x00\x00\x00\x00\x00\x00\x00\x00\x00\x00\x00\x00\x00\x00\x00\x00\x00\x00\x00\x00\x00\x00\x00\x00\x00\x00\x00\x00\x00\x00\x00\x00\x00\x00\x00\x00\x00\x00\x00\x00\x00\x00\x00\x00\x00\x00\x00\x00\x00\x00\x00\x00\x00\x00\x00\x00\x00\x00\x00\x00\x00\x00\x00\x00\x00\x00\x00\x00\x00\x00\x00\x00\x00\x00\x00\x00\x00\x00\x00\x00\x00\x00\x00\x00\x00\x00\x00\x00\x00\x00\x00\x00\x00\x00\x00\x00\x00\x00\x00\x00\x00\x00\x00\x00\x00\x00\x00\x00\x00\x00\x00\x00\x00\x00\x00\x00\x00\x00\x00\x00\x00\x00\x00\x00\x00\x00\x00\x00\x00\x00\x00\x00\x00\x00\x00\x00\x00\x00\x00\x00\x00\x00\x00\x00\x00\x00\x00\x00\x00\x00\x00\x00\x00\x00\x00\x00\x00\x00\x00\x00\x00\x00\x00\x00\x00\x00\x00\x00\x00\x00\x00\x00\x00\x00\x00\x00\x00\x00\x00\x00\x00\x00\x00\x00\x00\x00\x00\x00\x00\x00\x00\x00\x00\x00\x00\x00\x00\x00\x00\x00\x00\x00\x00\x00\x00\x00\x00\x00\x00\x00\x00\x00\x00\x00\x00\x00\x00\x00\x00\x00\x00\x00\x00\x00\x00\x00\x00\x00\x00\x00\x00\x00\x00\x00\x00\x00\x00\x00\x00\x00\x00\x00\x00\x00\x00\x00\x00\x00\x00\x00\x00\x00\x00\x00\x00\x00\x00\x00\x00\x00\x00\x00\x00\x00\x00\x00\x00\x00\x00\x00\x00\x00\x00\x00\x00\x00\x00\x00\x00\x00\x00\x00\x00\x00\x00\x00\x00\x00\x00\x00\x00\x00\x00\x00\x00\x00\x00\x00\x00\x00\x00\x00\x00\x00\x00\x00\x00\x00\x00\x00\x00\x00\x00\x00\x00\x00\x00\x00\x00\x00\x00\x00\x00\x00\x00\x00\x00\x00\x00\x00\x00\x00\x00\x00\x00\x00\x00\x00\x00\x00\x00\x00\x00\x00\x00\x00\x00\x00\x00\x00\x00\x00\x00\x00\x00\x00\x00\x00\x00\x00\x00\x00\x00\x00\x00\x00\x00\x00\x00\x00\x00\x00\x00\x00\x00\x00\x00\x00\x00\x00\x00\x00\x00\x00\x00\x00\x00\x00\x00\x00\x00\x00\x00\x00\x00\x00\x00\x00\x00\x00\x00\x00\x00\x00\x00\x00\x00\x00\x00\x00\x00\x00\x00\x00\x00\x00\x00\x00\x00\x00\x00\x00\x00\x00\x00\x00\x00\x00\x00\x00\x00\x00\x00\x00\x00\x00\x00\x00\x00\x00\x00\x00\x00\x00\x00\x00\x00\x00\x00\x00\x00\x00\x00\x00\x00\x00\x00\x00\x00\x00\x00\x00\x00\x00\x00\x00\x00\x00\x00\x00\x00\x00\x00\x00\x00\x00\x00\x00\x00\x00\x00\x00\x00\x00\x00\x00\x00\x00\x00\x00\x00\x00\x00\x00\x00\x00\x00\x00\x00\x00\x00\x00\x00\x00\x00\x00\x00\x00\x00\x00\x00\x00\x00\x00\x00\x00\x00\x00\x00\x00\x00\x00\x00\x00\x00\x00\x00\x00\x00\x00\x00\x00\x00\x00\x00\x00\x00\x00\x00\x00\x00\x00\x00\x00\x00\x00\x00\x00\x00\x00\x00\x00\x00\x00\x00\x00\x00\x00\x00\x00\x00\x00\x00\x00\x00\x00\x00\x00\x00\x00\x00\x00\x00\x00\x00\x00\x00\x00\x00\x00\x00\x00\x00\x00\x00\x00\x00\x00\x00\x00\x00\x00\x00\x00\x00\x00\x00\x00\x00\x00\x00\x00\x00\x00\x00\x00\x00\x00\x00\x00\x00\x00\x00\x00\x00\x00\x00\x00\x00\x00\x00\x00\x00\x00\x00\x00\x00\x00\x00\x00\x00\x00\x00\x00\x00\x00\x00\x00\x00\x00\x00\x00\x00\x00\x00\x00\x00\x00\x00\x00\x00\x00\x00\x00\x00\x00\x00\x00\x00\x00\x00\x00\x00\x00\x00\x00\x00\x00\x00\x00\x00\x00\x00\x00\x00\x00\x00\x00\x00\x00\x00\x00\x00\x00\x00\x00\x00\x00\x00\x00\x00\x00\x00\x00\x00\x00\x00\x00\x00\x00\x00\x00\x00\x00\x00\x00\x00\x00\x00\x00\x00\x00\x00\x00\x00\x00\x00\x00\x00\x00\x00'
S'\x00\x00\x00\x00\x00\x00\x00\x00\x00\x00\x00\x00\x00\x00\x00\x00\x00\x00\x00\x00\x00\x00\x00\x00\x00\x00\x00\x00\x00\x00\x00\x00\x00\x00\x00\x00\x00\x00\x00\x00\x00\x00\x00\x00\x00\x00\x00\x00\x00\x00\x00\x00\x00\x00\x00\x00\x00\x00\x00\x00\x00\x00\x00\x00\x00\x00\x00\x00\x00\x00\x00\x00\x00\x00\x00\x00\x00\x00\x00\x00\x00\x00\x00\x00\x00\x00\x00\x00\x00\x00\x00\x00\x00\x00\x00\x00\x00\x00\x00\x00\x00\x00\x00\x00\x00\x00\x00\x00\x00\x00\x00\x00\x00\x00\x00\x00\x00\x00\x00\x00\x00\x00\x00\x00\x00\x00\x00\x00\x00\x00\x00\x00\x00\x00\x00\x00\x00\x00\x00\x00\x00\x00\x00\x00\x00\x00\x00\x00\x00\x00\x00\x00\x00\x00\x00\x00\x00\x00\x00\x00\x00\x00\x00\x00\x00\x00\x00\x00\x00\x00\x00\x00\x00\x00\x00\x00\x00\x00\x00\x00\x00\x00\x00\x00\x00\x00\x00\x00\x00\x00\x00\x00\x00\x00\x00\x00\x00\x00\x00\x00\x00\x00\x00\x00\x00\x00\x00\x00\x00\x00\x00\x00\x00\x00\x00\x00\x00\x00\x00\x00\x00\x00\x00\x00\x00\x00\x00\x00\x00\x00\x00\x00\x00\x00\x00\x00\x00\x00\x00\x00\x00\x00\x00\x00\x00\x00\x00\x00\x00\x00\x00\x00\x00\x00\x00\x00\x00\x00\x00\x00\x00\x00\x00\x00\x00\x00\x00\x00\x00\x00\x00\x00\x00\x00\x00\x00\x00\x00\x00\x00\x00\x00\x00\x00\x00\x00\x00\x00\x00\x00\x00\x00\x00\x00\x00\x00\x00\x00\x00\x00\x00\x00\x00\x00\x00\x00\x00\x00\x00\x00\x00\x00\x00\x00\x00\x00\x00\x00\x00\x00\x00\x00\x00\x00\x00\x00\x00\x00\x00\x00\x00\x00\x00\x00\x00\x00\x00\x00\x00\x00\x00\x00\x00\x00\x00\x00\x00\x00\x00\x00\x00\x00\x00\x00\x00\x00\x00\x00\x00\x00\x00\x00\x00'
NtbsS'order'
p58
g52
(g53
g54
g55
S'b'
tRp59
(I1
(I121
I3
tg57
I00
S'\x00\x00\x00\x00\x00\x00\x00\x00\x00\x00\x00\x00\x00\x00\x00\x00\x00\x00\x00\x00\x00\x00\x00\x00\x00\x00\x00\x00\x00\x00\x00\x00\x00\x00\x00\x00\x00\x00\x00\x00\x00\x00\x00\x00\x00\x00\x00\x00\x00\x00\x00\x00\x00\x00\x00\x00\x00\x00\x00\x00\x00\x00\x00\x00\x00\x00\x00\x00\x00\x00\x00\x00\x00\x00\x00\x00\x00\x00\x00\x00\x00\x00\x00\x00\x00\x00\x00\x00\x00\x00\x00\x00\x00\x00\x00\x00\x00\x00\x00\x00\x00\x00\x00\x00\x00\x00\x00\x00\x00\x00\x00\x00\x00\x00\x00\x00\x00\x00\x00\x00\x00\x00\x00\x00\x00\x00\x00\x00\x00\x00\x00\x00\x00\x00\x00\x00\x00\x00\x00\x00\x00\x00\x00\x00\x00\x00\x00\x00\x00\x00\x00\x00\x00\x00\x00\x00\x00\x00\x00\x00\x00\x00\x00\x00\x00\x00\x00\x00\x00\x00\x00\x00\x00\x00\x00\x00\x00\x00\x00\x00\x00\x00\x00\x00\x00\x00\x00\x00\x00\x00\x00\x00\x00\x00\x00\x00\x00\x00\x00\x00\x00\x00\x00\x00\x00\x00\x00\x00\x00\x00\x00\x00\x00\x00\x00\x00\x00\x00\x00\x00\x00\x00\x00\x00\x00\x00\x00\x00\x00\x00\x00\x00\x00\x00\x00\x00\x00\x00\x00\x00\x00\x00\x00\x00\x00\x00\x00\x00\x00\x00\x00\x00\x00\x00\x00\x00\x00\x00\x00\x00\x00\x00\x00\x00\x00\x00\x00\x00\x00\x00\x00\x00\x00\x00\x00\x00\x00\x00\x00\x00\x00\x00\x00\x00\x00\x00\x00\x00\x00\x00\x00\x00\x00\x00\x00\x00\x00\x00\x00\x00\x00\x00\x00\x00\x00\x00\x00\x00\x00\x00\x00\x00\x00\x00\x00\x00\x00\x00\x00\x00\x00\x00\x00\x00\x00\x00\x00\x00\x00\x00\x00\x00\x00\x00\x00\x00\x00\x00\x00\x00\x00\x00\x00\x00\x00\x00\x00\x00\x00\x00\x00\x00\x00\x00\x00\x00\x00\x00\x00\x00\x00\x00\x00\x00\x00\x00\x00\x00\x00\x00\x00\x00\x00\x00\x00\x00\x00\x00\x00\x00\x00\x00\x00\x00\x00\x00\x00\x00\x00\x00\x00\x00\x00\x00\x00\x00\x00\x00\x00\x00\x00\x00\x00\x00\x00\x00\x00\x00\x00\x00\x00\x00\x00\x00\x00\x00\x00\x00\x00\x00\x00\x00\x00\x00\x00\x00\x00\x00\x00\x00\x00\x00\x00\x00\x00\x00\x00\x00\x00\x00\x00\x00\x00\x00\x00\x00\x00\x00\x00\x00\x00\x00\x00\x00\x00\x00\x00\x00\x00\x00\x00\x00\x00\x00\x00\x00\x00\x00\x00\x00\x00\x00\x00\x00\x00\x00\x00\x00\x00\x00\x00\x00\x00\x00\x00\x00\x00\x00\x00\x00\x00\x00\x00\x00\x00\x00\x00\x00\x00\x00\x00\x00\x00\x00\x00\x00\x00\x00\x00\x00\x00\x00\x00\x00\x00\x00\x00\x00\x00\x00\x00\x00\x00\x00\x00\x00\x00\x00\x00\x00\x00\x00\x00\x00\x00\x00\x00\x00\x00\x00\x00\x00\x00\x00\x00\x00\x00\x00\x00\x00\x00\x00\x00\x00\x00\x00\x00\x00\x00\x00\x00\x00\x00\x00\x00\x00\x00\x00\x00\x00\x00\x00\x00\x00\x00\x00\x00\x00\x00\x00\x00\x00\x00\x00\x00\x00\x00\x00\x00\x00\x00\x00\x00\x00\x00\x00\x00\x00\x00\x00\x00\x00\x00\x00\x00\x00\x00\x00\x00\x00\x00\x00\x00\x00\x00\x00\x00\x00\x00\x00\x00\x00\x00\x00\x00\x00\x00\x00\x00\x00\x00\x00\x00\x00\x00\x00\x00\x00\x00\x00\x00\x00\x00\x00\x00\x00\x00\x00\x00\x00\x00\x00\x00\x00\x00\x00\x00\x00\x00\x00\x00\x00\x00\x00\x00\x00\x00\x00\x00\x00\x00\x00\x00\x00\x00\x00\x00\x00\x00\x00\x00\x00\x00\x00\x00\x00\x00\x00\x00\x00\x00\x00\x00\x00\x00\x00\x00\x00\x00\x00\x00\x00\x00\x00\x00\x00\x00\x00\x00\x00\x00\x00\x00\x00\x00\x00\x00\x00\x00\x00\x00\x00\x00\x00\x00\x00\x00\x00\x00\x00\x00\x00\x00\x00\x00\x00\x00\x00\x00\x00\x00\x00\x00\x00\x00\x00\x00\x00\x00\x00\x00\x00\x00\x00\x00\x00\x00\x00\x00\x00\x00\x00\x00\x00\x00\x00\x00\x00\x00\x00\x00\x00\x00\x00\x00\x00\x00\x00\x00\x00\x00\x00\x00\x00\x00\x00\x00\x00\x00\x00\x00\x00\x00\x00\x00\x00\x00\x00\x00\x00\x00\x00\x00\x00\x00\x00\x00\x00\x00\x00\x00\x00\x00\x00\x00\x00\x00\x00\x00\x00\x00\x00\x00\x00\x00\x00\x00\x00\x00\x00\x00\x00\x00\x00\x00\x00\x00\x00\x00\x00\x00\x00\x00\x00\x00\x00\x00\x00\x00\x00\x00\x00\x00\x00\x00\x00\x00\x00\x00\x00\x00\x00\x00\x00\x00\x00\x00\x00\x00\x00\x00\x00\x00\x00\x00\x00\x00\x00\x00\x00\x00\x00\x00\x00\x00\x00\x00\x00\x00\x00\x00\x00\x00\x00\x00\x00\x00\x00\x00\x00\x00\x00\x00\x00\x00\x00\x00\x00\x00\x00\x00\x00\x00\x00\x00\x00\x00\x00\x00\x00\x00\x00\x00\x00\x00\x00\x00\x00\x00\x00\x00\x00\x00\x00\x00\x00\x00\x00\x00\x00\x00\x00\x00\x00\x00\x00\x00\x00\x00\x00\x00\x00\x00\x00\x00\x00\x00\x00\x00\x00\x00\x00\x00\x00\x00\x00\x00\x00\x00\x00\x00\x00\x00\x00\x00\x00\x00\x00\x00\x00\x00\x00\x00\x00\x00\x00\x00\x00\x00\x00\x00\x00\x00\x00\x00\x00\x00\x00\x00\x00\x00\x00\x00\x00\x00\x00\x00\x00\x00\x00\x00\x00\x00\x00\x00\x00\x00\x00\x00\x00\x00\x00\x00\x00\x00\x00\x00\x00\x00\x00\x00\x00\x00\x00\x00\x00\x00\x00\x00\x00\x00\x00\x00\x00\x00\x00\x00\x00\x00\x00\x00\x00\x00\x00\x00\x00\x00\x00\x00\x00\x00\x00\x00\x00\x00\x00\x00\x00\x00\x00\x00\x00\x00\x00\x00\x00\x00\x00\x00\x00\x00\x00\x00\x00\x00\x00\x00\x00\x00\x00\x00\x00\x00\x00\x00\x00\x00\x00\x00\x00\x00\x00\x00\x00\x00\x00\x00\x00\x00\x00\x00\x00\x00\x00\x00\x00\x00\x00\x00\x00\x00\x00\x00\x00\x00\x00\x00\x00\x00\x00\x00\x00\x00\x00\x00\x00\x00\x00\x00\x00\x00\x00\x00\x00\x00\x00\x00\x00\x00\x00\x00\x00\x00\x00\x00\x00\x00\x00\x00\x00\x00\x00\x00\x00\x00\x00\x00\x00\x00\x00\x00\x00\x00\x00\x00\x00\x00\x00\x00\x00\x00\x00\x00\x00\x00\x00\x00\x00\x00\x00\x00\x00\x00\x00\x00\x00\x00\x00\x00\x00\x00\x00\x00\x00\x00\x00\x00\x00\x00\x00\x00\x00\x00\x00\x00\x00\x00\x00\x00\x00\x00\x00\x00\x00\x00\x00\x00\x00\x00\x00\x00\x00\x00\x00\x00\x00\x00\x00\x00\x00\x00\x00\x00\x00\x00\x00\x00\x00\x00\x00\x00\x00\x00\x00\x00\x00\x00\x00\x00\x00\x00\x00\x00\x00\x00\x00\x00\x00\x00\x00\x00\x00\x00\x00\x00\x00\x00\x00\x00\x00\x00\x00\x00\x00\x00\x00\x00\x00\x00\x00\x00\x00\x00\x00\x00\x00\x00\x00\x00\x00\x00\x00\x00\x00\x00\x00\x00\x00\x00\x00\x00\x00\x00\x00\x00\x00\x00\x00\x00\x00\x00\x00\x00\x00\x00\x00\x00\x00\x00\x00\x00\x00\x00\x00\x00\x00\x00\x00\x00\x00\x00\x00\x00\x00\x00\x00\x00\x00\x00\x00\x00\x00\x00\x00\x00\x00\x00\x00\x00\x00\x00\x00\x00\x00\x00\x00\x00\x00\x00\x00\x00\x00\x00\x00\x00\x00\x00\x00\x00\x00\x00\x00\x00\x00\x00\x00\x00\x00\x00\x00\x00\x00\x00\x00\x00\x00\x00\x00\x00\x00\x00\x00\x00\x00\x00\x00\x00\x00\x00\x00\x00\x00\x00\x00\x00\x00\x00\x00\x00\x00\x00\x00\x00\x00\x00\x00\x00\x00\x00\x00\x00\x00\x00\x00\x00\x00\x00\x00\x00\x00\x00\x00\x00\x00\x00\x00\x00\x00\x00\x00\x00\x00'
S'\x01\x01\x01\x01\x01\x01\x01\x01\x01\x01\x01\x01\x01\x01\x01\x00\x01\x01\x01\x01\x01\x01\x01\x01\x01\x01\x01\x01\x01\x01\x01\x01\x01\x01\x01\x01\x01\x01\x01\x01\x01\x01\x01\x01\x01\x01\x01\x01\x01\x01\x01\x01\x01\x01\x01\x01\x01\x01\x01\x01\x01\x01\x01\x01\x01\x01\x01\x01\x01\x01\x01\x01\x01\x01\x01\x01\x01\x01\x01\x01\x01\x01\x01\x01\x01\x01\x01\x01\x01\x01\x01\x01\x01\x01\x01\x01\x01\x01\x01\x01\x01\x01\x01\x01\x01\x01\x01\x01\x01\x01\x01\x01\x01\x01\x01\x01\x01\x01\x01\x01\x01\x01\x01\x01\x01\x01\x01\x01\x01\x01\x01\x01\x01\x01\x01\x01\x01\x01\x01\x01\x01\x01\x01\x01\x01\x01\x01\x01\x01\x01\x01\x01\x01\x01\x01\x01\x01\x01\x01\x01\x01\x01\x01\x01\x01\x01\x01\x01\x01\x01\x01\x01\x01\x01\x01\x01\x01\x01\x01\x01\x01\x01\x01\x01\x01\x01\x01\x01\x01\x01\x01\x01\x01\x01\x01\x01\x01\x01\x01\x01\x01\x01\x01\x01\x01\x01\x01\x01\x01\x01\x01\x01\x01\x01\x01\x01\x01\x01\x01\x01\x01\x01\x01\x01\x01\x01\x01\x01\x01\x01\x01\x01\x01\x01\x01\x01\x01\x01\x01\x01\x01\x01\x01\x01\x01\x01\x01\x01\x01\x01\x01\x01\x01\x01\x01\x01\x01\x01\x01\x01\x01\x01\x01\x01\x01\x01\x01\x01\x01\x01\x01\x01\x01\x01\x01\x01\x01\x01\x01\x01\x01\x01\x01\x01\x01\x01\x01\x01\x01\x01\x01\x01\x01\x01\x01\x01\x01\x01\x01\x01\x01\x01\x01\x01\x01\x01\x01\x01\x01\x01\x01\x01\x01\x01\x01\x01\x01\x01\x01\x01\x01\x01\x01\x01\x01\x01\x01\x01\x01\x01\x01\x01\x01\x01\x01\x01\x01\x01\x01\x01\x01\x01\x01\x01\x01\x01\x01\x01\x01\x01\x01\x01\x01\x01\x01\x01\x01\x01\x01\x01\x01\x01\x01'
NtbstRp60
(dp61
S'isNumeric'
p62
(dp63
g51
I01
sg58
I01
ssg46
g34
sS'dataTypes'
p64
(lp65
g51
ag58
asS'dataShape'
p66
(lp67
I121
aI3
asbsS'method'
p68
S'random'
p69
sS'sequenceIndices'
p70
cnumpy.core.multiarray
_reconstruct
p71
(g54
(I0
tS'b'
tRp72
(I1
(I121
I3
tg24
(S'i4'
I0
I1
tRp73
(I3
S'<'
NNNI-1
I-1
I0
tbI01
S'\x05\x00\x00\x00T\x00\x00\x00]\x00\x00\x00\x0f\x00\x00\x00-\x00\x00\x00\x12\x00\x00\x00\x11\x00\x00\x00Z\x00\x00\x00\x13\x00\x00\x00q\x00\x00\x00%\x00\x00\x00^\x00\x00\x00\x03\x00\x00\x00X\x00\x00\x00\x1f\x00\x00\x00a\x00\x00\x00O\x00\x00\x00\'\x00\x00\x00S\x00\x00\x00\x15\x00\x00\x00\x06\x00\x00\x005\x00\x00\x00p\x00\x00\x00U\x00\x00\x00?\x00\x00\x00V\x00\x00\x00l\x00\x00\x00`\x00\x00\x00Q\x00\x00\x00j\x00\x00\x00\n\x00\x00\x00n\x00\x00\x00\x1b\x00\x00\x00\x0e\x00\x00\x000\x00\x00\x00u\x00\x00\x006\x00\x00\x00d\x00\x00\x00\\\x00\x00\x00A\x00\x00\x00\r\x00\x00\x00\x1c\x00\x00\x00*\x00\x00\x00t\x00\x00\x00e\x00\x00\x00\x16\x00\x00\x00;\x00\x00\x00w\x00\x00\x00G\x00\x00\x00#\x00\x00\x00\x08\x00\x00\x00(\x00\x00\x00R\x00\x00\x00J\x00\x00\x00)\x00\x00\x00L\x00\x00\x00m\x00\x00\x00\x00\x00\x00\x00 \x00\x00\x00i\x00\x00\x00\x1e\x00\x00\x00Y\x00\x00\x00\x0b\x00\x00\x00\x18\x00\x00\x00\t\x00\x00\x00.\x00\x00\x00C\x00\x00\x00W\x00\x00\x00F\x00\x00\x00k\x00\x00\x00H\x00\x00\x00x\x00\x00\x00s\x00\x00\x00b\x00\x00\x00\x1d\x00\x00\x00h\x00\x00\x00f\x00\x00\x00\x10\x00\x00\x00o\x00\x00\x00,\x00\x00\x00M\x00\x00\x00\x04\x00\x00\x00!\x00\x00\x004\x00\x00\x00=\x00\x00\x00D\x00\x00\x00\x19\x00\x00\x001\x00\x00\x009\x00\x00\x00\x0c\x00\x00\x00r\x00\x00\x00+\x00\x00\x00\x14\x00\x00\x00\x02\x00\x00\x00E\x00\x00\x00[\x00\x00\x00v\x00\x00\x00@\x00\x00\x00_\x00\x00\x00<\x00\x00\x008\x00\x00\x003\x00\x00\x00\x01\x00\x00\x00K\x00\x00\x00P\x00\x00\x00\x1a\x00\x00\x00/\x00\x00\x002\x00\x00\x00B\x00\x00\x00\x07\x00\x00\x00$\x00\x00\x007\x00\x00\x00c\x00\x00\x00N\x00\x00\x00&\x00\x00\x00:\x00\x00\x00I\x00\x00\x00\x17\x00\x00\x00g\x00\x00\x00>\x00\x00\x00"\x00\x00\x00<\x00\x00\x00\x03\x00\x00\x00Y\x00\x00\x00B\x00\x00\x00o\x00\x00\x00a\x00\x00\x00\x16\x00\x00\x00+\x00\x00\x00\x12\x00\x00\x00G\x00\x00\x00O\x00\x00\x00c\x00\x00\x00\x07\x00\x00\x00u\x00\x00\x00"\x00\x00\x00F\x00\x00\x00 \x00\x00\x00L\x00\x00\x00r\x00\x00\x00\x1f\x00\x00\x00\x1b\x00\x00\x005\x00\x00\x00,\x00\x00\x00\x1e\x00\x00\x00\x13\x00\x00\x00A\x00\x00\x00?\x00\x00\x00v\x00\x00\x00\t\x00\x00\x00N\x00\x00\x00\x01\x00\x00\x00\x05\x00\x00\x00V\x00\x00\x00R\x00\x00\x00m\x00\x00\x00_\x00\x00\x00%\x00\x00\x00\x0f\x00\x00\x00\'\x00\x00\x00\x17\x00\x00\x00]\x00\x00\x001\x00\x00\x00g\x00\x00\x00>\x00\x00\x00i\x00\x00\x00[\x00\x00\x00\x19\x00\x00\x00$\x00\x00\x000\x00\x00\x006\x00\x00\x00\x06\x00\x00\x00q\x00\x00\x00:\x00\x00\x002\x00\x00\x00l\x00\x00\x00`\x00\x00\x00k\x00\x00\x00#\x00\x00\x00f\x00\x00\x00P\x00\x00\x00=\x00\x00\x00j\x00\x00\x003\x00\x00\x00x\x00\x00\x00&\x00\x00\x00\x15\x00\x00\x00b\x00\x00\x00\x1a\x00\x00\x00\x14\x00\x00\x00h\x00\x00\x00D\x00\x00\x00n\x00\x00\x00d\x00\x00\x00E\x00\x00\x009\x00\x00\x00K\x00\x00\x00\x11\x00\x00\x00t\x00\x00\x00/\x00\x00\x00\n\x00\x00\x00S\x00\x00\x00*\x00\x00\x00I\x00\x00\x00\x0c\x00\x00\x00\r\x00\x00\x00W\x00\x00\x008\x00\x00\x00\x00\x00\x00\x00H\x00\x00\x00^\x00\x00\x00e\x00\x00\x00\x1c\x00\x00\x00\\\x00\x00\x004\x00\x00\x00-\x00\x00\x007\x00\x00\x00\x0e\x00\x00\x00s\x00\x00\x00p\x00\x00\x00Q\x00\x00\x00\x0b\x00\x00\x00X\x00\x00\x00Z\x00\x00\x00J\x00\x00\x00\x08\x00\x00\x00;\x00\x00\x00C\x00\x00\x00.\x00\x00\x00\x18\x00\x00\x00@\x00\x00\x00\x10\x00\x00\x00\x02\x00\x00\x00)\x00\x00\x00!\x00\x00\x00(\x00\x00\x00\x04\x00\x00\x00w\x00\x00\x00\x1d\x00\x00\x00U\x00\x00\x00T\x00\x00\x00M\x00\x00\x00S\x00\x00\x00\x1d\x00\x00\x00\x1a\x00\x00\x00\x1b\x00\x00\x00[\x00\x00\x00G\x00\x00\x00\x11\x00\x00\x00\x10\x00\x00\x00&\x00\x00\x00I\x00\x00\x00\x1f\x00\x00\x00!\x00\x00\x00b\x00\x00\x00=\x00\x00\x00-\x00\x00\x00k\x00\x00\x00n\x00\x00\x00.\x00\x00\x00m\x00\x00\x00"\x00\x00\x00%\x00\x00\x00\x1c\x00\x00\x00\x05\x00\x00\x00\x0b\x00\x00\x00\x0e\x00\x00\x00Z\x00\x00\x00\x04\x00\x00\x00*\x00\x00\x00c\x00\x00\x00/\x00\x00\x00\x16\x00\x00\x00\x19\x00\x00\x00#\x00\x00\x00\x07\x00\x00\x00\n\x00\x00\x00u\x00\x00\x00w\x00\x00\x00v\x00\x00\x00N\x00\x00\x00\x0c\x00\x00\x00\x13\x00\x00\x00r\x00\x00\x00F\x00\x00\x008\x00\x00\x00Y\x00\x00\x003\x00\x00\x00\x14\x00\x00\x00\r\x00\x00\x00+\x00\x00\x00(\x00\x00\x00U\x00\x00\x00t\x00\x00\x00V\x00\x00\x00\t\x00\x00\x00]\x00\x00\x00T\x00\x00\x00B\x00\x00\x00\x00\x00\x00\x00q\x00\x00\x00J\x00\x00\x00\x08\x00\x00\x00:\x00\x00\x00a\x00\x00\x004\x00\x00\x009\x00\x00\x00o\x00\x00\x00x\x00\x00\x007\x00\x00\x00l\x00\x00\x00\x02\x00\x00\x00\x15\x00\x00\x00\x01\x00\x00\x00p\x00\x00\x00\x06\x00\x00\x00<\x00\x00\x00^\x00\x00\x00$\x00\x00\x00L\x00\x00\x00\x1e\x00\x00\x005\x00\x00\x00H\x00\x00\x00_\x00\x00\x00X\x00\x00\x00\x12\x00\x00\x00)\x00\x00\x000\x00\x00\x00@\x00\x00\x00`\x00\x00\x00\x17\x00\x00\x00;\x00\x00\x00E\x00\x00\x00R\x00\x00\x00g\x00\x00\x00P\x00\x00\x00s\x00\x00\x00?\x00\x00\x00K\x00\x00\x00i\x00\x00\x00\x03\x00\x00\x00 \x00\x00\x00D\x00\x00\x00O\x00\x00\x00,\x00\x00\x00W\x00\x00\x00\\\x00\x00\x00>\x00\x00\x00\x0f\x00\x00\x00Q\x00\x00\x001\x00\x00\x00e\x00\x00\x00A\x00\x00\x00d\x00\x00\x00\'\x00\x00\x00h\x00\x00\x002\x00\x00\x00M\x00\x00\x00f\x00\x00\x00\x18\x00\x00\x00j\x00\x00\x006\x00\x00\x00C\x00\x00\x00'
tbsS'finished'
p74
I00
sS'nReps'
p75
I3
sS'nRemaining'
p76
I362
sS'trialList'
p77
(lp78
g1
(g39
g40
(dp79
g42
Vfinal_0_0.wav
p80
stRp81
ag1
(g39
g40
(dp82
g42
Vfinal_0_1.wav
p83
stRp84
ag1
(g39
g40
(dp85
g42
Vfinal_0_2.wav
p86
stRp87
ag1
(g39
g40
(dp88
g42
Vfinal_0_3.wav
p89
stRp90
ag1
(g39
g40
(dp91
g42
Vfinal_0_4.wav
p92
stRp93
ag44
ag1
(g39
g40
(dp94
g42
Vfinal_0_6.wav
p95
stRp96
ag1
(g39
g40
(dp97
g42
Vfinal_0_7.wav
p98
stRp99
ag1
(g39
g40
(dp100
g42
Vfinal_0_8.wav
p101
stRp102
ag1
(g39
g40
(dp103
g42
Vfinal_0_9.wav
p104
stRp105
ag1
(g39
g40
(dp106
g42
Vfinal_0_10.wav
p107
stRp108
ag1
(g39
g40
(dp109
g42
Vfinal_1_0.wav
p110
stRp111
ag1
(g39
g40
(dp112
g42
Vfinal_1_1.wav
p113
stRp114
ag1
(g39
g40
(dp115
g42
Vfinal_1_2.wav
p116
stRp117
ag1
(g39
g40
(dp118
g42
Vfinal_1_3.wav
p119
stRp120
ag1
(g39
g40
(dp121
g42
Vfinal_1_4.wav
p122
stRp123
ag1
(g39
g40
(dp124
g42
Vfinal_1_5.wav
p125
stRp126
ag1
(g39
g40
(dp127
g42
Vfinal_1_6.wav
p128
stRp129
ag1
(g39
g40
(dp130
g42
Vfinal_1_7.wav
p131
stRp132
ag1
(g39
g40
(dp133
g42
Vfinal_1_8.wav
p134
stRp135
ag1
(g39
g40
(dp136
g42
Vfinal_1_9.wav
p137
stRp138
ag1
(g39
g40
(dp139
g42
Vfinal_1_10.wav
p140
stRp141
ag1
(g39
g40
(dp142
g42
Vfinal_2_0.wav
p143
stRp144
ag1
(g39
g40
(dp145
g42
Vfinal_2_1.wav
p146
stRp147
ag1
(g39
g40
(dp148
g42
Vfinal_2_2.wav
p149
stRp150
ag1
(g39
g40
(dp151
g42
Vfinal_2_3.wav
p152
stRp153
ag1
(g39
g40
(dp154
g42
Vfinal_2_4.wav
p155
stRp156
ag1
(g39
g40
(dp157
g42
Vfinal_2_5.wav
p158
stRp159
ag1
(g39
g40
(dp160
g42
Vfinal_2_6.wav
p161
stRp162
ag1
(g39
g40
(dp163
g42
Vfinal_2_7.wav
p164
stRp165
ag1
(g39
g40
(dp166
g42
Vfinal_2_8.wav
p167
stRp168
ag1
(g39
g40
(dp169
g42
Vfinal_2_9.wav
p170
stRp171
ag1
(g39
g40
(dp172
g42
Vfinal_2_10.wav
p173
stRp174
ag1
(g39
g40
(dp175
g42
Vfinal_3_0.wav
p176
stRp177
ag1
(g39
g40
(dp178
g42
Vfinal_3_1.wav
p179
stRp180
ag1
(g39
g40
(dp181
g42
Vfinal_3_2.wav
p182
stRp183
ag1
(g39
g40
(dp184
g42
Vfinal_3_3.wav
p185
stRp186
ag1
(g39
g40
(dp187
g42
Vfinal_3_4.wav
p188
stRp189
ag1
(g39
g40
(dp190
g42
Vfinal_3_5.wav
p191
stRp192
ag1
(g39
g40
(dp193
g42
Vfinal_3_6.wav
p194
stRp195
ag1
(g39
g40
(dp196
g42
Vfinal_3_7.wav
p197
stRp198
ag1
(g39
g40
(dp199
g42
Vfinal_3_8.wav
p200
stRp201
ag1
(g39
g40
(dp202
g42
Vfinal_3_9.wav
p203
stRp204
ag1
(g39
g40
(dp205
g42
Vfinal_3_10.wav
p206
stRp207
ag1
(g39
g40
(dp208
g42
Vfinal_4_0.wav
p209
stRp210
ag1
(g39
g40
(dp211
g42
Vfinal_4_1.wav
p212
stRp213
ag1
(g39
g40
(dp214
g42
Vfinal_4_2.wav
p215
stRp216
ag1
(g39
g40
(dp217
g42
Vfinal_4_3.wav
p218
stRp219
ag1
(g39
g40
(dp220
g42
Vfinal_4_4.wav
p221
stRp222
ag1
(g39
g40
(dp223
g42
Vfinal_4_5.wav
p224
stRp225
ag1
(g39
g40
(dp226
g42
Vfinal_4_6.wav
p227
stRp228
ag1
(g39
g40
(dp229
g42
Vfinal_4_7.wav
p230
stRp231
ag1
(g39
g40
(dp232
g42
Vfinal_4_8.wav
p233
stRp234
ag1
(g39
g40
(dp235
g42
Vfinal_4_9.wav
p236
stRp237
ag1
(g39
g40
(dp238
g42
Vfinal_4_10.wav
p239
stRp240
ag1
(g39
g40
(dp241
g42
Vfinal_5_0.wav
p242
stRp243
ag1
(g39
g40
(dp244
g42
Vfinal_5_1.wav
p245
stRp246
ag1
(g39
g40
(dp247
g42
Vfinal_5_2.wav
p248
stRp249
ag1
(g39
g40
(dp250
g42
Vfinal_5_3.wav
p251
stRp252
ag1
(g39
g40
(dp253
g42
Vfinal_5_4.wav
p254
stRp255
ag1
(g39
g40
(dp256
g42
Vfinal_5_5.wav
p257
stRp258
ag1
(g39
g40
(dp259
g42
Vfinal_5_6.wav
p260
stRp261
ag1
(g39
g40
(dp262
g42
Vfinal_5_7.wav
p263
stRp264
ag1
(g39
g40
(dp265
g42
Vfinal_5_8.wav
p266
stRp267
ag1
(g39
g40
(dp268
g42
Vfinal_5_9.wav
p269
stRp270
ag1
(g39
g40
(dp271
g42
Vfinal_5_10.wav
p272
stRp273
ag1
(g39
g40
(dp274
g42
Vfinal_6_0.wav
p275
stRp276
ag1
(g39
g40
(dp277
g42
Vfinal_6_1.wav
p278
stRp279
ag1
(g39
g40
(dp280
g42
Vfinal_6_2.wav
p281
stRp282
ag1
(g39
g40
(dp283
g42
Vfinal_6_3.wav
p284
stRp285
ag1
(g39
g40
(dp286
g42
Vfinal_6_4.wav
p287
stRp288
ag1
(g39
g40
(dp289
g42
Vfinal_6_5.wav
p290
stRp291
ag1
(g39
g40
(dp292
g42
Vfinal_6_6.wav
p293
stRp294
ag1
(g39
g40
(dp295
g42
Vfinal_6_7.wav
p296
stRp297
ag1
(g39
g40
(dp298
g42
Vfinal_6_8.wav
p299
stRp300
ag1
(g39
g40
(dp301
g42
Vfinal_6_9.wav
p302
stRp303
ag1
(g39
g40
(dp304
g42
Vfinal_6_10.wav
p305
stRp306
ag1
(g39
g40
(dp307
g42
Vfinal_7_0.wav
p308
stRp309
ag1
(g39
g40
(dp310
g42
Vfinal_7_1.wav
p311
stRp312
ag1
(g39
g40
(dp313
g42
Vfinal_7_2.wav
p314
stRp315
ag1
(g39
g40
(dp316
g42
Vfinal_7_3.wav
p317
stRp318
ag1
(g39
g40
(dp319
g42
Vfinal_7_4.wav
p320
stRp321
ag1
(g39
g40
(dp322
g42
Vfinal_7_5.wav
p323
stRp324
ag1
(g39
g40
(dp325
g42
Vfinal_7_6.wav
p326
stRp327
ag1
(g39
g40
(dp328
g42
Vfinal_7_7.wav
p329
stRp330
ag1
(g39
g40
(dp331
g42
Vfinal_7_8.wav
p332
stRp333
ag1
(g39
g40
(dp334
g42
Vfinal_7_9.wav
p335
stRp336
ag1
(g39
g40
(dp337
g42
Vfinal_7_10.wav
p338
stRp339
ag1
(g39
g40
(dp340
g42
Vfinal_8_0.wav
p341
stRp342
ag1
(g39
g40
(dp343
g42
Vfinal_8_1.wav
p344
stRp345
ag1
(g39
g40
(dp346
g42
Vfinal_8_2.wav
p347
stRp348
ag1
(g39
g40
(dp349
g42
Vfinal_8_3.wav
p350
stRp351
ag1
(g39
g40
(dp352
g42
Vfinal_8_4.wav
p353
stRp354
ag1
(g39
g40
(dp355
g42
Vfinal_8_5.wav
p356
stRp357
ag1
(g39
g40
(dp358
g42
Vfinal_8_6.wav
p359
stRp360
ag1
(g39
g40
(dp361
g42
Vfinal_8_7.wav
p362
stRp363
ag1
(g39
g40
(dp364
g42
Vfinal_8_8.wav
p365
stRp366
ag1
(g39
g40
(dp367
g42
Vfinal_8_9.wav
p368
stRp369
ag1
(g39
g40
(dp370
g42
Vfinal_8_10.wav
p371
stRp372
ag1
(g39
g40
(dp373
g42
Vfinal_9_0.wav
p374
stRp375
ag1
(g39
g40
(dp376
g42
Vfinal_9_1.wav
p377
stRp378
ag1
(g39
g40
(dp379
g42
Vfinal_9_2.wav
p380
stRp381
ag1
(g39
g40
(dp382
g42
Vfinal_9_3.wav
p383
stRp384
ag1
(g39
g40
(dp385
g42
Vfinal_9_4.wav
p386
stRp387
ag1
(g39
g40
(dp388
g42
Vfinal_9_5.wav
p389
stRp390
ag1
(g39
g40
(dp391
g42
Vfinal_9_6.wav
p392
stRp393
ag1
(g39
g40
(dp394
g42
Vfinal_9_7.wav
p395
stRp396
ag1
(g39
g40
(dp397
g42
Vfinal_9_8.wav
p398
stRp399
ag1
(g39
g40
(dp400
g42
Vfinal_9_9.wav
p401
stRp402
ag1
(g39
g40
(dp403
g42
Vfinal_9_10.wav
p404
stRp405
ag1
(g39
g40
(dp406
g42
Vfinal_10_0.wav
p407
stRp408
ag1
(g39
g40
(dp409
g42
Vfinal_10_1.wav
p410
stRp411
ag1
(g39
g40
(dp412
g42
Vfinal_10_2.wav
p413
stRp414
ag1
(g39
g40
(dp415
g42
Vfinal_10_3.wav
p416
stRp417
ag1
(g39
g40
(dp418
g42
Vfinal_10_4.wav
p419
stRp420
ag1
(g39
g40
(dp421
g42
Vfinal_10_5.wav
p422
stRp423
ag1
(g39
g40
(dp424
g42
Vfinal_10_6.wav
p425
stRp426
ag1
(g39
g40
(dp427
g42
Vfinal_10_7.wav
p428
stRp429
ag1
(g39
g40
(dp430
g42
Vfinal_10_8.wav
p431
stRp432
ag1
(g39
g40
(dp433
g42
Vfinal_10_9.wav
p434
stRp435
ag1
(g39
g40
(dp436
g42
Vfinal_10_10.wav
p437
stRp438
asS'seed'
p439
NsS'thisIndex'
p440
g23
(g73
S'\x05\x00\x00\x00'
tRp441
sS'thisN'
p442
I0
sS'thisTrialN'
p443
I0
sS'nTotal'
p444
I363
sS'_warnUseOfNext'
p445
I01
sbasS'saveWideText'
p446
I01
sS'thisEntry'
p447
(dp448
sS'version'
p449
S''
sS'_paramNamesSoFar'
p450
(lp451
Vstimuli
p452
asS'entries'
p453
(lp454
(dp455
g28
g29
sg15
S'left'
p456
sg30
V
sS'practice_trial.thisTrialN'
p457
I0
sg452
Vfinal_0_0.wav
p458
sg22
g26
sS'practice_trial.thisIndex'
p459
g23
(g73
S'\x00\x00\x00\x00'
tRp460
sg27
g12
sg16
F0.45081710815429688
sS'practice_trial.thisN'
p461
I0
sg20
g21
sS'practice_trial.thisRepN'
p462
I0
sa(dp463
g28
g29
sg15
S'left'
p464
sg30
V
sS'practice_trial.thisTrialN'
p465
I1
sg452
Vfinal_1_10.wav
p466
sg22
g26
sS'practice_trial.thisIndex'
p467
g23
(g73
S'\x01\x00\x00\x00'
tRp468
sg27
g12
sg16
F0.56499099731445312
sS'practice_trial.thisN'
p469
I1
sg20
g21
sS'practice_trial.thisRepN'
p470
I0
sa(dp471
g28
g29
sg15
S'right'
p472
sg30
V
sS'practice_trial.thisTrialN'
p473
I2
sg452
Vfinal_7_6.wav
p474
sg22
g26
sS'practice_trial.thisIndex'
p475
g23
(g73
S'\x04\x00\x00\x00'
tRp476
sg27
g12
sg16
F0.8374779224395752
sS'practice_trial.thisN'
p477
I2
sg20
g21
sS'practice_trial.thisRepN'
p478
I0
sa(dp479
g28
g29
sg15
S'right'
p480
sg30
V
sS'practice_trial.thisTrialN'
p481
I3
sg452
Vfinal_2_5.wav
p482
sg22
g26
sS'practice_trial.thisIndex'
p483
g23
(g73
S'\x02\x00\x00\x00'
tRp484
sg27
g12
sg16
F0.98424792289733887
sS'practice_trial.thisN'
p485
I3
sg20
g21
sS'practice_trial.thisRepN'
p486
I0
sa(dp487
g28
g29
sg15
S'right'
p488
sg30
V
sS'practice_trial.thisTrialN'
p489
I4
sg452
Vfinal_8_5.wav
p490
sg22
g26
sS'practice_trial.thisIndex'
p491
g23
(g73
S'\x05\x00\x00\x00'
tRp492
sg27
g12
sg16
F0.85078096389770508
sS'practice_trial.thisN'
p493
I4
sg20
g21
sS'practice_trial.thisRepN'
p494
I0
sa(dp495
g28
g29
sg15
S'right'
p496
sg30
V
sS'practice_trial.thisTrialN'
p497
I5
sg452
Vfinal_9_10.wav
p498
sg22
g26
sS'practice_trial.thisIndex'
p499
g23
(g73
S'\x06\x00\x00\x00'
tRp500
sg27
g12
sg16
F0.88215899467468262
sS'practice_trial.thisN'
p501
I5
sg20
g21
sS'practice_trial.thisRepN'
p502
I0
sa(dp503
g28
g29
sg15
S'left'
p504
sg30
V
sS'practice_trial.thisTrialN'
p505
I6
sg452
Vfinal_10_0.wav
p506
sg22
g26
sS'practice_trial.thisIndex'
p507
g23
(g73
S'\x07\x00\x00\x00'
tRp508
sg27
g12
sg16
F1.3675839900970459
sS'practice_trial.thisN'
p509
I6
sg20
g21
sS'practice_trial.thisRepN'
p510
I0
sa(dp511
g28
g29
sg15
S'right'
p512
sg30
V
sS'practice_trial.thisTrialN'
p513
I7
sg452
Vfinal_3_6.wav
p514
sg22
g26
sS'practice_trial.thisIndex'
p515
g23
(g73
S'\x03\x00\x00\x00'
tRp516
sg27
g12
sg16
F0.67073702812194824
sS'practice_trial.thisN'
p517
I7
sg20
g21
sS'practice_trial.thisRepN'
p518
I0
sasS'loops'
p519
(lp520
g1
(g33
g3
NtRp521
(dp522
g36
V<PsychoPy2experiment version="1.81.00" encoding="utf-8">\u000a  <Settings>\u000a    <Param name="Show mouse" val="False" valType="bool" updates="None"/>\u000a    <Param name="Data filename" val="u'data' + os.path.sep + '%s_%s' %(expInfo['participant'], expInfo['date'])" valType="code" updates="None"/>\u000a    <Param name="Monitor" val="testMonitor" valType="str" updates="None"/>\u000a    <Param name="Enable Escape" val="True" valType="bool" updates="None"/>\u000a    <Param name="color" val="$[0,0,0]" valType="str" updates="None"/>\u000a    <Param name="Window size (pixels)" val="[800, 600]" valType="code" updates="None"/>\u000a    <Param name="Full-screen window" val="True" valType="bool" updates="None"/>\u000a    <Param name="colorSpace" val="rgb" valType="str" updates="None"/>\u000a    <Param name="Experiment info" val="{u'session': u'001', u'participant': u''}" valType="code" updates="None"/>\u000a    <Param name="Save csv file" val="True" valType="bool" updates="None"/>\u000a    <Param name="Show info dlg" val="True" valType="bool" updates="None"/>\u000a    <Param name="Save wide csv file" val="True" valType="bool" updates="None"/>\u000a    <Param name="Save psydat file" val="True" valType="bool" updates="None"/>\u000a    <Param name="expName" val="beat_2AFC" valType="str" updates="None"/>\u000a    <Param name="logging level" val="exp" valType="code" updates="None"/>\u000a    <Param name="blendMode" val="avg" valType="str" updates="None"/>\u000a    <Param name="Save excel file" val="True" valType="bool" updates="None"/>\u000a    <Param name="Units" val="use prefs" valType="str" updates="None"/>\u000a    <Param name="Save log file" val="True" valType="bool" updates="None"/>\u000a    <Param name="Screen" val="1" valType="num" updates="None"/>\u000a  </Settings>\u000a  <Routines>\u000a    <Routine name="end">\u000a      <TextComponent name="done">\u000a        <Param name="opacity" val="1" valType="code" updates="constant"/>\u000a        <Param name="colorSpace" val="rgb" valType="str" updates="constant"/>\u000a        <Param name="name" val="done" valType="code" updates="None"/>\u000a        <Param name="wrapWidth" val="" valType="code" updates="constant"/>\u000a        <Param name="color" val="white" valType="str" updates="constant"/>\u000a        <Param name="text" val="That's it. Thanks you for participating." valType="str" updates="constant"/>\u000a        <Param name="stopVal" val="20.0" valType="code" updates="constant"/>\u000a        <Param name="durationEstim" val="" valType="code" updates="None"/>\u000a        <Param name="pos" val="[0, 0]" valType="code" updates="constant"/>\u000a        <Param name="flip" val="" valType="str" updates="constant"/>\u000a        <Param name="startEstim" val="" valType="code" updates="None"/>\u000a        <Param name="units" val="from exp settings" valType="str" updates="None"/>\u000a        <Param name="startType" val="time (s)" valType="str" updates="None"/>\u000a        <Param name="ori" val="0" valType="code" updates="constant"/>\u000a        <Param name="stopType" val="duration (s)" valType="str" updates="None"/>\u000a        <Param name="startVal" val="0.0" valType="code" updates="None"/>\u000a        <Param name="font" val="Arial" valType="str" updates="constant"/>\u000a        <Param name="letterHeight" val="0.1" valType="code" updates="constant"/>\u000a      </TextComponent>\u000a      <KeyboardComponent name="doneKey">\u000a        <Param name="correctAns" val="" valType="str" updates="constant"/>\u000a        <Param name="storeCorrect" val="False" valType="bool" updates="constant"/>\u000a        <Param name="name" val="doneKey" valType="code" updates="None"/>\u000a        <Param name="stopVal" val="20.0" valType="code" updates="constant"/>\u000a        <Param name="durationEstim" val="" valType="code" updates="None"/>\u000a        <Param name="forceEndRoutine" val="True" valType="bool" updates="constant"/>\u000a        <Param name="startEstim" val="" valType="code" updates="None"/>\u000a        <Param name="discard previous" val="True" valType="bool" updates="constant"/>\u000a        <Param name="startType" val="time (s)" valType="str" updates="None"/>\u000a        <Param name="allowedKeys" val="'space'" valType="code" updates="constant"/>\u000a        <Param name="stopType" val="duration (s)" valType="str" updates="None"/>\u000a        <Param name="startVal" val="1.0" valType="code" updates="None"/>\u000a        <Param name="store" val="nothing" valType="str" updates="constant"/>\u000a      </KeyboardComponent>\u000a    </Routine>\u000a    <Routine name="msg2">\u000a      <CodeComponent name="code_2">\u000a        <Param name="Begin Experiment" val="msg='0.000'" valType="extendedCode" updates="constant"/>\u000a        <Param name="name" val="code_2" valType="code" updates="None"/>\u000a        <Param name="Begin Routine" val="msg=&quot;%.3f&quot; %(key_resp_trial.rt)" valType="extendedCode" updates="constant"/>\u000a        <Param name="End Routine" val="" valType="extendedCode" updates="constant"/>\u000a        <Param name="End Experiment" val="" valType="extendedCode" updates="constant"/>\u000a        <Param name="Each Frame" val="" valType="extendedCode" updates="constant"/>\u000a      </CodeComponent>\u000a      <TextComponent name="text_2">\u000a        <Param name="opacity" val="1" valType="code" updates="constant"/>\u000a        <Param name="colorSpace" val="rgb" valType="str" updates="constant"/>\u000a        <Param name="name" val="text_2" valType="code" updates="None"/>\u000a        <Param name="wrapWidth" val="" valType="code" updates="constant"/>\u000a        <Param name="color" val="white" valType="str" updates="constant"/>\u000a        <Param name="text" val="$msg" valType="str" updates="set every repeat"/>\u000a        <Param name="stopVal" val="1.0" valType="code" updates="constant"/>\u000a        <Param name="durationEstim" val="" valType="code" updates="None"/>\u000a        <Param name="pos" val="[0, 0]" valType="code" updates="constant"/>\u000a        <Param name="flip" val="" valType="str" updates="constant"/>\u000a        <Param name="startEstim" val="" valType="code" updates="None"/>\u000a        <Param name="units" val="from exp settings" valType="str" updates="None"/>\u000a        <Param name="startType" val="time (s)" valType="str" updates="None"/>\u000a        <Param name="ori" val="0" valType="code" updates="constant"/>\u000a        <Param name="stopType" val="duration (s)" valType="str" updates="None"/>\u000a        <Param name="startVal" val="0.0" valType="code" updates="None"/>\u000a        <Param name="font" val="Arial" valType="str" updates="constant"/>\u000a        <Param name="letterHeight" val="0.1" valType="code" updates="constant"/>\u000a      </TextComponent>\u000a    </Routine>\u000a    <Routine name="practice">\u000a      <TextComponent name="crossPractice">\u000a        <Param name="opacity" val="1" valType="code" updates="constant"/>\u000a        <Param name="colorSpace" val="rgb" valType="str" updates="constant"/>\u000a        <Param name="name" val="crossPractice" valType="code" updates="None"/>\u000a        <Param name="wrapWidth" val="" valType="code" updates="constant"/>\u000a        <Param name="color" val="red" valType="str" updates="constant"/>\u000a        <Param name="text" val="+" valType="str" updates="constant"/>\u000a        <Param name="stopVal" val="0.4" valType="code" updates="constant"/>\u000a        <Param name="durationEstim" val="" valType="code" updates="None"/>\u000a        <Param name="pos" val="[0, 0]" valType="code" updates="constant"/>\u000a        <Param name="flip" val="" valType="str" updates="constant"/>\u000a        <Param name="startEstim" val="" valType="code" updates="None"/>\u000a        <Param name="units" val="from exp settings" valType="str" updates="None"/>\u000a        <Param name="startType" val="time (s)" valType="str" updates="None"/>\u000a        <Param name="ori" val="0" valType="code" updates="constant"/>\u000a        <Param name="stopType" val="duration (s)" valType="str" updates="None"/>\u000a        <Param name="startVal" val="0.0" valType="code" updates="None"/>\u000a        <Param name="font" val="Arial" valType="str" updates="constant"/>\u000a        <Param name="letterHeight" val="0.5" valType="code" updates="constant"/>\u000a      </TextComponent>\u000a      <SoundComponent name="practice_sound">\u000a        <Param name="sound" val="$stimuli" valType="str" updates="set every repeat"/>\u000a        <Param name="volume" val="1" valType="code" updates="constant"/>\u000a        <Param name="name" val="practice_sound" valType="code" updates="None"/>\u000a        <Param name="stopVal" val="3.0" valType="code" updates="constant"/>\u000a        <Param name="durationEstim" val="" valType="code" updates="None"/>\u000a        <Param name="startEstim" val="" valType="code" updates="None"/>\u000a        <Param name="startType" val="time (s)" valType="str" updates="None"/>\u000a        <Param name="stopType" val="duration (s)" valType="str" updates="None"/>\u000a        <Param name="startVal" val="0.5" valType="code" updates="None"/>\u000a      </SoundComponent>\u000a      <KeyboardComponent name="key_resp_practice">\u000a        <Param name="correctAns" val="" valType="str" updates="constant"/>\u000a        <Param name="storeCorrect" val="False" valType="bool" updates="constant"/>\u000a        <Param name="name" val="key_resp_practice" valType="code" updates="None"/>\u000a        <Param name="stopVal" val="3.0" valType="code" updates="constant"/>\u000a        <Param name="durationEstim" val="" valType="code" updates="None"/>\u000a        <Param name="forceEndRoutine" val="True" valType="bool" updates="constant"/>\u000a        <Param name="startEstim" val="" valType="code" updates="None"/>\u000a        <Param name="discard previous" val="True" valType="bool" updates="constant"/>\u000a        <Param name="startType" val="time (s)" valType="str" updates="None"/>\u000a        <Param name="allowedKeys" val="'left','right'" valType="code" updates="set every repeat"/>\u000a        <Param name="stopType" val="duration (s)" valType="str" updates="None"/>\u000a        <Param name="startVal" val="0.5" valType="code" updates="None"/>\u000a        <Param name="store" val="first key" valType="str" updates="constant"/>\u000a      </KeyboardComponent>\u000a      <ImageComponent name="sheep_image">\u000a        <Param name="opacity" val="1" valType="code" updates="constant"/>\u000a        <Param name="flipVert" val="False" valType="bool" updates="constant"/>\u000a        <Param name="colorSpace" val="rgb" valType="str" updates="constant"/>\u000a        <Param name="name" val="sheep_image" valType="code" updates="constant"/>\u000a        <Param name="color" val="$[1,1,1]" valType="str" updates="constant"/>\u000a        <Param name="stopVal" val="3.0" valType="code" updates="constant"/>\u000a        <Param name="durationEstim" val="" valType="code" updates="None"/>\u000a        <Param name="mask" val="None" valType="str" updates="constant"/>\u000a        <Param name="pos" val="[-0.5, 0.3]" valType="code" updates="constant"/>\u000a        <Param name="interpolate" val="linear" valType="str" updates="constant"/>\u000a        <Param name="startEstim" val="" valType="code" updates="None"/>\u000a        <Param name="units" val="from exp settings" valType="str" updates="None"/>\u000a        <Param name="texture resolution" val="128" valType="code" updates="constant"/>\u000a        <Param name="startType" val="time (s)" valType="str" updates="None"/>\u000a        <Param name="ori" val="0" valType="code" updates="constant"/>\u000a        <Param name="stopType" val="duration (s)" valType="str" updates="None"/>\u000a        <Param name="startVal" val="0.5" valType="code" updates="None"/>\u000a        <Param name="flipHoriz" val="False" valType="bool" updates="constant"/>\u000a        <Param name="image" val="sheep1.jpg" valType="str" updates="constant"/>\u000a        <Param name="size" val="[0.5, 0.5]" valType="code" updates="constant"/>\u000a      </ImageComponent>\u000a      <ImageComponent name="ship_image">\u000a        <Param name="opacity" val="1" valType="code" updates="constant"/>\u000a        <Param name="flipVert" val="False" valType="bool" updates="constant"/>\u000a        <Param name="colorSpace" val="rgb" valType="str" updates="constant"/>\u000a        <Param name="name" val="ship_image" valType="code" updates="constant"/>\u000a        <Param name="color" val="$[1,1,1]" valType="str" updates="constant"/>\u000a        <Param name="stopVal" val="3.0" valType="code" updates="constant"/>\u000a        <Param name="durationEstim" val="" valType="code" updates="None"/>\u000a        <Param name="mask" val="None" valType="str" updates="constant"/>\u000a        <Param name="pos" val="[0.5, 0.3]" valType="code" updates="constant"/>\u000a        <Param name="interpolate" val="linear" valType="str" updates="constant"/>\u000a        <Param name="startEstim" val="" valType="code" updates="None"/>\u000a        <Param name="units" val="from exp settings" valType="str" updates="None"/>\u000a        <Param name="texture resolution" val="128" valType="code" updates="constant"/>\u000a        <Param name="startType" val="time (s)" valType="str" updates="None"/>\u000a        <Param name="ori" val="0" valType="code" updates="constant"/>\u000a        <Param name="stopType" val="duration (s)" valType="str" updates="None"/>\u000a        <Param name="startVal" val="0.5" valType="code" updates="None"/>\u000a        <Param name="flipHoriz" val="False" valType="bool" updates="constant"/>\u000a        <Param name="image" val="ship1.jpg" valType="str" updates="constant"/>\u000a        <Param name="size" val="[0.5, 0.5]" valType="code" updates="constant"/>\u000a      </ImageComponent>\u000a      <TextComponent name="practice_left">\u000a        <Param name="opacity" val="1" valType="code" updates="constant"/>\u000a        <Param name="colorSpace" val="rgb" valType="str" updates="constant"/>\u000a        <Param name="name" val="practice_left" valType="code" updates="None"/>\u000a        <Param name="wrapWidth" val="" valType="code" updates="constant"/>\u000a        <Param name="color" val="white" valType="str" updates="constant"/>\u000a        <Param name="text" val="L" valType="str" updates="constant"/>\u000a        <Param name="stopVal" val="3.0" valType="code" updates="constant"/>\u000a        <Param name="durationEstim" val="" valType="code" updates="None"/>\u000a        <Param name="pos" val="[-0.5, -0.3]" valType="code" updates="constant"/>\u000a        <Param name="flip" val="" valType="str" updates="constant"/>\u000a        <Param name="startEstim" val="" valType="code" updates="None"/>\u000a        <Param name="units" val="from exp settings" valType="str" updates="None"/>\u000a        <Param name="startType" val="time (s)" valType="str" updates="None"/>\u000a        <Param name="ori" val="0" valType="code" updates="constant"/>\u000a        <Param name="stopType" val="duration (s)" valType="str" updates="None"/>\u000a        <Param name="startVal" val="0.5" valType="code" updates="None"/>\u000a        <Param name="font" val="Arial" valType="str" updates="constant"/>\u000a        <Param name="letterHeight" val="0.1" valType="code" updates="constant"/>\u000a      </TextComponent>\u000a      <TextComponent name="practice_right">\u000a        <Param name="opacity" val="1" valType="code" updates="constant"/>\u000a        <Param name="colorSpace" val="rgb" valType="str" updates="constant"/>\u000a        <Param name="name" val="practice_right" valType="code" updates="None"/>\u000a        <Param name="wrapWidth" val="" valType="code" updates="constant"/>\u000a        <Param name="color" val="white" valType="str" updates="constant"/>\u000a        <Param name="text" val="R" valType="str" updates="constant"/>\u000a        <Param name="stopVal" val="3.0" valType="code" updates="constant"/>\u000a        <Param name="durationEstim" val="" valType="code" updates="None"/>\u000a        <Param name="pos" val="[0.5, -0.3]" valType="code" updates="constant"/>\u000a        <Param name="flip" val="" valType="str" updates="constant"/>\u000a        <Param name="startEstim" val="" valType="code" updates="None"/>\u000a        <Param name="units" val="from exp settings" valType="str" updates="None"/>\u000a        <Param name="startType" val="time (s)" valType="str" updates="None"/>\u000a        <Param name="ori" val="0" valType="code" updates="constant"/>\u000a        <Param name="stopType" val="duration (s)" valType="str" updates="None"/>\u000a        <Param name="startVal" val="0.5" valType="code" updates="None"/>\u000a        <Param name="font" val="Arial" valType="str" updates="constant"/>\u000a        <Param name="letterHeight" val="0.1" valType="code" updates="constant"/>\u000a      </TextComponent>\u000a    </Routine>\u000a    <Routine name="cross">\u000a      <TextComponent name="cross_trial">\u000a        <Param name="opacity" val="1" valType="code" updates="constant"/>\u000a        <Param name="colorSpace" val="rgb" valType="str" updates="constant"/>\u000a        <Param name="name" val="cross_trial" valType="code" updates="None"/>\u000a        <Param name="wrapWidth" val="" valType="code" updates="constant"/>\u000a        <Param name="color" val="red" valType="str" updates="constant"/>\u000a        <Param name="text" val="+" valType="str" updates="constant"/>\u000a        <Param name="stopVal" val=".75" valType="code" updates="constant"/>\u000a        <Param name="durationEstim" val="" valType="code" updates="None"/>\u000a        <Param name="pos" val="[0, 0]" valType="code" updates="constant"/>\u000a        <Param name="flip" val="" valType="str" updates="constant"/>\u000a        <Param name="startEstim" val="" valType="code" updates="None"/>\u000a        <Param name="units" val="from exp settings" valType="str" updates="None"/>\u000a        <Param name="startType" val="time (s)" valType="str" updates="None"/>\u000a        <Param name="ori" val="0" valType="code" updates="constant"/>\u000a        <Param name="stopType" val="duration (s)" valType="str" updates="None"/>\u000a        <Param name="startVal" val="0.25" valType="code" updates="None"/>\u000a        <Param name="font" val="Arial" valType="str" updates="constant"/>\u000a        <Param name="letterHeight" val="0.5" valType="code" updates="constant"/>\u000a      </TextComponent>\u000a    </Routine>\u000a    <Routine name="Break">\u000a      <CodeComponent name="code">\u000a        <Param name="Begin Experiment" val="" valType="extendedCode" updates="constant"/>\u000a        <Param name="name" val="code" valType="code" updates="None"/>\u000a        <Param name="Begin Routine" val="" valType="extendedCode" updates="constant"/>\u000a        <Param name="End Routine" val="" valType="extendedCode" updates="constant"/>\u000a        <Param name="End Experiment" val="" valType="extendedCode" updates="constant"/>\u000a        <Param name="Each Frame" val="if trials.thisN not in [100,200,300,400,500,600,700,800]:&#10;    continueRoutine=False" valType="extendedCode" updates="constant"/>\u000a      </CodeComponent>\u000a      <TextComponent name="break_text">\u000a        <Param name="opacity" val="1" valType="code" updates="constant"/>\u000a        <Param name="colorSpace" val="rgb" valType="str" updates="constant"/>\u000a        <Param name="name" val="break_text" valType="code" updates="None"/>\u000a        <Param name="wrapWidth" val="" valType="code" updates="constant"/>\u000a        <Param name="color" val="white" valType="str" updates="constant"/>\u000a        <Param name="text" val="You may take a short break if you like. &#10;Press the spacebar to continue." valType="str" updates="constant"/>\u000a        <Param name="stopVal" val="20.0" valType="code" updates="constant"/>\u000a        <Param name="durationEstim" val="" valType="code" updates="None"/>\u000a        <Param name="pos" val="[0, 0]" valType="code" updates="constant"/>\u000a        <Param name="flip" val="" valType="str" updates="constant"/>\u000a        <Param name="startEstim" val="" valType="code" updates="None"/>\u000a        <Param name="units" val="from exp settings" valType="str" updates="None"/>\u000a        <Param name="startType" val="time (s)" valType="str" updates="None"/>\u000a        <Param name="ori" val="0" valType="code" updates="constant"/>\u000a        <Param name="stopType" val="duration (s)" valType="str" updates="None"/>\u000a        <Param name="startVal" val="0.5" valType="code" updates="None"/>\u000a        <Param name="font" val="Arial" valType="str" updates="constant"/>\u000a        <Param name="letterHeight" val="0.1" valType="code" updates="constant"/>\u000a      </TextComponent>\u000a      <KeyboardComponent name="key_resp_break">\u000a        <Param name="correctAns" val="" valType="str" updates="constant"/>\u000a        <Param name="storeCorrect" val="False" valType="bool" updates="constant"/>\u000a        <Param name="name" val="key_resp_break" valType="code" updates="None"/>\u000a        <Param name="stopVal" val="20.0" valType="code" updates="constant"/>\u000a        <Param name="durationEstim" val="" valType="code" updates="None"/>\u000a        <Param name="forceEndRoutine" val="True" valType="bool" updates="constant"/>\u000a        <Param name="startEstim" val="" valType="code" updates="None"/>\u000a        <Param name="discard previous" val="True" valType="bool" updates="constant"/>\u000a        <Param name="startType" val="time (s)" valType="str" updates="None"/>\u000a        <Param name="allowedKeys" val="'space'" valType="code" updates="constant"/>\u000a        <Param name="stopType" val="duration (s)" valType="str" updates="None"/>\u000a        <Param name="startVal" val="0.5" valType="code" updates="None"/>\u000a        <Param name="store" val="nothing" valType="str" updates="constant"/>\u000a      </KeyboardComponent>\u000a    </Routine>\u000a    <Routine name="trial">\u000a      <TextComponent name="cross_tr">\u000a        <Param name="opacity" val="1" valType="code" updates="constant"/>\u000a        <Param name="colorSpace" val="rgb" valType="str" updates="constant"/>\u000a        <Param name="name" val="cross_tr" valType="code" updates="None"/>\u000a        <Param name="wrapWidth" val="" valType="code" updates="constant"/>\u000a        <Param name="color" val="red" valType="str" updates="constant"/>\u000a        <Param name="text" val="+" valType="str" updates="constant"/>\u000a        <Param name="stopVal" val="0.4" valType="code" updates="constant"/>\u000a        <Param name="durationEstim" val="" valType="code" updates="None"/>\u000a        <Param name="pos" val="[0, 0]" valType="code" updates="constant"/>\u000a        <Param name="flip" val="" valType="str" updates="constant"/>\u000a        <Param name="startEstim" val="" valType="code" updates="None"/>\u000a        <Param name="units" val="from exp settings" valType="str" updates="None"/>\u000a        <Param name="startType" val="time (s)" valType="str" updates="None"/>\u000a        <Param name="ori" val="0" valType="code" updates="constant"/>\u000a        <Param name="stopType" val="duration (s)" valType="str" updates="None"/>\u000a        <Param name="startVal" val="0.0" valType="code" updates="None"/>\u000a        <Param name="font" val="Arial" valType="str" updates="constant"/>\u000a        <Param name="letterHeight" val="0.5" valType="code" updates="constant"/>\u000a      </TextComponent>\u000a      <SoundComponent name="trial_sound">\u000a        <Param name="sound" val="$stimuli" valType="str" updates="set every repeat"/>\u000a        <Param name="volume" val="1" valType="code" updates="constant"/>\u000a        <Param name="name" val="trial_sound" valType="code" updates="None"/>\u000a        <Param name="stopVal" val="3.0" valType="code" updates="constant"/>\u000a        <Param name="durationEstim" val="" valType="code" updates="None"/>\u000a        <Param name="startEstim" val="" valType="code" updates="None"/>\u000a        <Param name="startType" val="time (s)" valType="str" updates="None"/>\u000a        <Param name="stopType" val="duration (s)" valType="str" updates="None"/>\u000a        <Param name="startVal" val="0.5" valType="code" updates="None"/>\u000a      </SoundComponent>\u000a      <KeyboardComponent name="key_resp_trial">\u000a        <Param name="correctAns" val="" valType="str" updates="constant"/>\u000a        <Param name="storeCorrect" val="False" valType="bool" updates="constant"/>\u000a        <Param name="name" val="key_resp_trial" valType="code" updates="None"/>\u000a        <Param name="stopVal" val="3.0" valType="code" updates="constant"/>\u000a        <Param name="durationEstim" val="" valType="code" updates="None"/>\u000a        <Param name="forceEndRoutine" val="True" valType="bool" updates="constant"/>\u000a        <Param name="startEstim" val="" valType="code" updates="None"/>\u000a        <Param name="discard previous" val="True" valType="bool" updates="constant"/>\u000a        <Param name="startType" val="time (s)" valType="str" updates="None"/>\u000a        <Param name="allowedKeys" val="'left','right'" valType="code" updates="set every repeat"/>\u000a        <Param name="stopType" val="duration (s)" valType="str" updates="None"/>\u000a        <Param name="startVal" val="0.5" valType="code" updates="None"/>\u000a        <Param name="store" val="first key" valType="str" updates="constant"/>\u000a      </KeyboardComponent>\u000a      <ImageComponent name="image_sheep">\u000a        <Param name="opacity" val="1" valType="code" updates="constant"/>\u000a        <Param name="flipVert" val="False" valType="bool" updates="constant"/>\u000a        <Param name="colorSpace" val="rgb" valType="str" updates="constant"/>\u000a        <Param name="name" val="image_sheep" valType="code" updates="constant"/>\u000a        <Param name="color" val="$[1,1,1]" valType="str" updates="constant"/>\u000a        <Param name="stopVal" val="3.0" valType="code" updates="constant"/>\u000a        <Param name="durationEstim" val="" valType="code" updates="None"/>\u000a        <Param name="mask" val="None" valType="str" updates="constant"/>\u000a        <Param name="pos" val="[-0.5, 0.3]" valType="code" updates="constant"/>\u000a        <Param name="interpolate" val="linear" valType="str" updates="constant"/>\u000a        <Param name="startEstim" val="" valType="code" updates="None"/>\u000a        <Param name="units" val="from exp settings" valType="str" updates="None"/>\u000a        <Param name="texture resolution" val="128" valType="code" updates="constant"/>\u000a        <Param name="startType" val="time (s)" valType="str" updates="None"/>\u000a        <Param name="ori" val="0" valType="code" updates="constant"/>\u000a        <Param name="stopType" val="duration (s)" valType="str" updates="None"/>\u000a        <Param name="startVal" val="0.5" valType="code" updates="None"/>\u000a        <Param name="flipHoriz" val="False" valType="bool" updates="constant"/>\u000a        <Param name="image" val="sheep.jpg" valType="str" updates="constant"/>\u000a        <Param name="size" val="[0.5, 0.5]" valType="code" updates="constant"/>\u000a      </ImageComponent>\u000a      <ImageComponent name="image_ship">\u000a        <Param name="opacity" val="1" valType="code" updates="constant"/>\u000a        <Param name="flipVert" val="False" valType="bool" updates="constant"/>\u000a        <Param name="colorSpace" val="rgb" valType="str" updates="constant"/>\u000a        <Param name="name" val="image_ship" valType="code" updates="constant"/>\u000a        <Param name="color" val="$[1,1,1]" valType="str" updates="constant"/>\u000a        <Param name="stopVal" val="3.0" valType="code" updates="constant"/>\u000a        <Param name="durationEstim" val="" valType="code" updates="None"/>\u000a        <Param name="mask" val="None" valType="str" updates="constant"/>\u000a        <Param name="pos" val="[0.5, 0.3]" valType="code" updates="constant"/>\u000a        <Param name="interpolate" val="linear" valType="str" updates="constant"/>\u000a        <Param name="startEstim" val="" valType="code" updates="None"/>\u000a        <Param name="units" val="from exp settings" valType="str" updates="None"/>\u000a        <Param name="texture resolution" val="128" valType="code" updates="constant"/>\u000a        <Param name="startType" val="time (s)" valType="str" updates="None"/>\u000a        <Param name="ori" val="0" valType="code" updates="constant"/>\u000a        <Param name="stopType" val="duration (s)" valType="str" updates="None"/>\u000a        <Param name="startVal" val="0.5" valType="code" updates="None"/>\u000a        <Param name="flipHoriz" val="False" valType="bool" updates="constant"/>\u000a        <Param name="image" val="ship.jpg" valType="str" updates="constant"/>\u000a        <Param name="size" val="[0.5, 0.5]" valType="code" updates="constant"/>\u000a      </ImageComponent>\u000a      <TextComponent name="left">\u000a        <Param name="opacity" val="1" valType="code" updates="constant"/>\u000a        <Param name="colorSpace" val="rgb" valType="str" updates="constant"/>\u000a        <Param name="name" val="left" valType="code" updates="None"/>\u000a        <Param name="wrapWidth" val="" valType="code" updates="constant"/>\u000a        <Param name="color" val="white" valType="str" updates="constant"/>\u000a        <Param name="text" val="L" valType="str" updates="constant"/>\u000a        <Param name="stopVal" val="3.0" valType="code" updates="constant"/>\u000a        <Param name="durationEstim" val="" valType="code" updates="None"/>\u000a        <Param name="pos" val="[-0.5, -0.3]" valType="code" updates="constant"/>\u000a        <Param name="flip" val="" valType="str" updates="constant"/>\u000a        <Param name="startEstim" val="" valType="code" updates="None"/>\u000a        <Param name="units" val="from exp settings" valType="str" updates="None"/>\u000a        <Param name="startType" val="time (s)" valType="str" updates="None"/>\u000a        <Param name="ori" val="0" valType="code" updates="constant"/>\u000a        <Param name="stopType" val="duration (s)" valType="str" updates="None"/>\u000a        <Param name="startVal" val="0.5" valType="code" updates="None"/>\u000a        <Param name="font" val="Arial" valType="str" updates="constant"/>\u000a        <Param name="letterHeight" val="0.1" valType="code" updates="constant"/>\u000a      </TextComponent>\u000a      <TextComponent name="right">\u000a        <Param name="opacity" val="1" valType="code" updates="constant"/>\u000a        <Param name="colorSpace" val="rgb" valType="str" updates="constant"/>\u000a        <Param name="name" val="right" valType="code" updates="None"/>\u000a        <Param name="wrapWidth" val="" valType="code" updates="constant"/>\u000a        <Param name="color" val="white" valType="str" updates="constant"/>\u000a        <Param name="text" val="R" valType="str" updates="constant"/>\u000a        <Param name="stopVal" val="3.0" valType="code" updates="constant"/>\u000a        <Param name="durationEstim" val="" valType="code" updates="None"/>\u000a        <Param name="pos" val="[0.5, -0.3]" valType="code" updates="constant"/>\u000a        <Param name="flip" val="" valType="str" updates="constant"/>\u000a        <Param name="startEstim" val="" valType="code" updates="None"/>\u000a        <Param name="units" val="from exp settings" valType="str" updates="None"/>\u000a        <Param name="startType" val="time (s)" valType="str" updates="None"/>\u000a        <Param name="ori" val="0" valType="code" updates="constant"/>\u000a        <Param name="stopType" val="duration (s)" valType="str" updates="None"/>\u000a        <Param name="startVal" val="0.5" valType="code" updates="None"/>\u000a        <Param name="font" val="Arial" valType="str" updates="constant"/>\u000a        <Param name="letterHeight" val="0.1" valType="code" updates="constant"/>\u000a      </TextComponent>\u000a    </Routine>\u000a    <Routine name="msg">\u000a      <CodeComponent name="code2">\u000a        <Param name="Begin Experiment" val="msg='0.000'" valType="extendedCode" updates="constant"/>\u000a        <Param name="name" val="code2" valType="code" updates="None"/>\u000a        <Param name="Begin Routine" val="msg=&quot;%.3f ...FASTER!&quot; %(key_resp_practice.rt)" valType="extendedCode" updates="constant"/>\u000a        <Param name="End Routine" val="" valType="extendedCode" updates="constant"/>\u000a        <Param name="End Experiment" val="" valType="extendedCode" updates="constant"/>\u000a        <Param name="Each Frame" val="" valType="extendedCode" updates="constant"/>\u000a      </CodeComponent>\u000a      <TextComponent name="text">\u000a        <Param name="opacity" val="1" valType="code" updates="constant"/>\u000a        <Param name="colorSpace" val="rgb" valType="str" updates="constant"/>\u000a        <Param name="name" val="text" valType="code" updates="None"/>\u000a        <Param name="wrapWidth" val="" valType="code" updates="constant"/>\u000a        <Param name="color" val="white" valType="str" updates="constant"/>\u000a        <Param name="text" val="$msg" valType="str" updates="set every repeat"/>\u000a        <Param name="stopVal" val="1.0" valType="code" updates="constant"/>\u000a        <Param name="durationEstim" val="" valType="code" updates="None"/>\u000a        <Param name="pos" val="[0, 0]" valType="code" updates="constant"/>\u000a        <Param name="flip" val="" valType="str" updates="constant"/>\u000a        <Param name="startEstim" val="" valType="code" updates="None"/>\u000a        <Param name="units" val="from exp settings" valType="str" updates="None"/>\u000a        <Param name="startType" val="time (s)" valType="str" updates="None"/>\u000a        <Param name="ori" val="0" valType="code" updates="constant"/>\u000a        <Param name="stopType" val="duration (s)" valType="str" updates="None"/>\u000a        <Param name="startVal" val="0.0" valType="code" updates="None"/>\u000a        <Param name="font" val="Arial" valType="str" updates="constant"/>\u000a        <Param name="letterHeight" val="0.1" valType="code" updates="constant"/>\u000a      </TextComponent>\u000a    </Routine>\u000a    <Routine name="got_it">\u000a      <TextComponent name="gotIT">\u000a        <Param name="opacity" val="1" valType="code" updates="constant"/>\u000a        <Param name="colorSpace" val="rgb" valType="str" updates="constant"/>\u000a        <Param name="name" val="gotIT" valType="code" updates="None"/>\u000a        <Param name="wrapWidth" val="" valType="code" updates="constant"/>\u000a        <Param name="color" val="white" valType="str" updates="constant"/>\u000a        <Param name="text" val="Got it? If you have any questions please ask the experimenter now. If not, press the spacebar to begin the experiment. " valType="str" updates="constant"/>\u000a        <Param name="stopVal" val="10.0" valType="code" updates="constant"/>\u000a        <Param name="durationEstim" val="" valType="code" updates="None"/>\u000a        <Param name="pos" val="[0, 0]" valType="code" updates="constant"/>\u000a        <Param name="flip" val="" valType="str" updates="constant"/>\u000a        <Param name="startEstim" val="" valType="code" updates="None"/>\u000a        <Param name="units" val="from exp settings" valType="str" updates="None"/>\u000a        <Param name="startType" val="time (s)" valType="str" updates="None"/>\u000a        <Param name="ori" val="0" valType="code" updates="constant"/>\u000a        <Param name="stopType" val="duration (s)" valType="str" updates="None"/>\u000a        <Param name="startVal" val="0.75" valType="code" updates="None"/>\u000a        <Param name="font" val="Arial" valType="str" updates="constant"/>\u000a        <Param name="letterHeight" val="0.1" valType="code" updates="constant"/>\u000a      </TextComponent>\u000a      <KeyboardComponent name="gotResponse">\u000a        <Param name="correctAns" val="" valType="str" updates="constant"/>\u000a        <Param name="storeCorrect" val="False" valType="bool" updates="constant"/>\u000a        <Param name="name" val="gotResponse" valType="code" updates="None"/>\u000a        <Param name="stopVal" val="10.0" valType="code" updates="constant"/>\u000a        <Param name="durationEstim" val="" valType="code" updates="None"/>\u000a        <Param name="forceEndRoutine" val="True" valType="bool" updates="constant"/>\u000a        <Param name="startEstim" val="" valType="code" updates="None"/>\u000a        <Param name="discard previous" val="True" valType="bool" updates="constant"/>\u000a        <Param name="startType" val="time (s)" valType="str" updates="None"/>\u000a        <Param name="allowedKeys" val="'space'" valType="code" updates="constant"/>\u000a        <Param name="stopType" val="duration (s)" valType="str" updates="None"/>\u000a        <Param name="startVal" val="1.0" valType="code" updates="None"/>\u000a        <Param name="store" val="nothing" valType="str" updates="constant"/>\u000a      </KeyboardComponent>\u000a    </Routine>\u000a    <Routine name="cross_practice">\u000a      <TextComponent name="crossTrial">\u000a        <Param name="opacity" val="1" valType="code" updates="constant"/>\u000a        <Param name="colorSpace" val="rgb" valType="str" updates="constant"/>\u000a        <Param name="name" val="crossTrial" valType="code" updates="None"/>\u000a        <Param name="wrapWidth" val="" valType="code" updates="constant"/>\u000a        <Param name="color" val="red" valType="str" updates="constant"/>\u000a        <Param name="text" val="+" valType="str" updates="constant"/>\u000a        <Param name="stopVal" val="0.4" valType="code" updates="constant"/>\u000a        <Param name="durationEstim" val="" valType="code" updates="None"/>\u000a        <Param name="pos" val="[0, 0]" valType="code" updates="constant"/>\u000a        <Param name="flip" val="" valType="str" updates="constant"/>\u000a        <Param name="startEstim" val="" valType="code" updates="None"/>\u000a        <Param name="units" val="from exp settings" valType="str" updates="None"/>\u000a        <Param name="startType" val="time (s)" valType="str" updates="None"/>\u000a        <Param name="ori" val="0" valType="code" updates="constant"/>\u000a        <Param name="stopType" val="duration (s)" valType="str" updates="None"/>\u000a        <Param name="startVal" val="0" valType="code" updates="None"/>\u000a        <Param name="font" val="Arial" valType="str" updates="constant"/>\u000a        <Param name="letterHeight" val="0.5" valType="code" updates="constant"/>\u000a      </TextComponent>\u000a    </Routine>\u000a    <Routine name="instructions">\u000a      <TextComponent name="instructions_text">\u000a        <Param name="opacity" val="1" valType="code" updates="constant"/>\u000a        <Param name="colorSpace" val="rgb" valType="str" updates="constant"/>\u000a        <Param name="name" val="instructions_text" valType="code" updates="None"/>\u000a        <Param name="wrapWidth" val="" valType="code" updates="constant"/>\u000a        <Param name="color" val="white" valType="str" updates="constant"/>\u000a        <Param name="text" val="In this experiment you are going to hear different words. Your task is to decide, as quickly as possible and without making mistakes, if what you heard sounds more like &quot;sheep&quot; or &quot;ship&quot;. &#10;&#10;You will use the arrow keys to make your decision. Let's do a practice round to make sure you understand. &#10;&#10;Press the spacebar to continue." valType="str" updates="constant"/>\u000a        <Param name="stopVal" val="30.0" valType="code" updates="constant"/>\u000a        <Param name="durationEstim" val="" valType="code" updates="None"/>\u000a        <Param name="pos" val="[0, 0]" valType="code" updates="constant"/>\u000a        <Param name="flip" val="" valType="str" updates="constant"/>\u000a        <Param name="startEstim" val="" valType="code" updates="None"/>\u000a        <Param name="units" val="from exp settings" valType="str" updates="None"/>\u000a        <Param name="startType" val="time (s)" valType="str" updates="None"/>\u000a        <Param name="ori" val="0" valType="code" updates="constant"/>\u000a        <Param name="stopType" val="duration (s)" valType="str" updates="None"/>\u000a        <Param name="startVal" val="0.0" valType="code" updates="None"/>\u000a        <Param name="font" val="Arial" valType="str" updates="constant"/>\u000a        <Param name="letterHeight" val="0.1" valType="code" updates="constant"/>\u000a      </TextComponent>\u000a      <KeyboardComponent name="key_resp_2">\u000a        <Param name="correctAns" val="" valType="str" updates="constant"/>\u000a        <Param name="storeCorrect" val="False" valType="bool" updates="constant"/>\u000a        <Param name="name" val="key_resp_2" valType="code" updates="None"/>\u000a        <Param name="stopVal" val="30.0" valType="code" updates="constant"/>\u000a        <Param name="durationEstim" val="" valType="code" updates="None"/>\u000a        <Param name="forceEndRoutine" val="True" valType="bool" updates="constant"/>\u000a        <Param name="startEstim" val="" valType="code" updates="None"/>\u000a        <Param name="discard previous" val="True" valType="bool" updates="constant"/>\u000a        <Param name="startType" val="time (s)" valType="str" updates="None"/>\u000a        <Param name="allowedKeys" val="'space'" valType="code" updates="constant"/>\u000a        <Param name="stopType" val="duration (s)" valType="str" updates="None"/>\u000a        <Param name="startVal" val="0.0" valType="code" updates="None"/>\u000a        <Param name="store" val="nothing" valType="str" updates="constant"/>\u000a      </KeyboardComponent>\u000a    </Routine>\u000a  </Routines>\u000a  <Flow>\u000a    <Routine name="instructions"/>\u000a    <LoopInitiator loopType="TrialHandler" name="practice_trial">\u000a      <Param name="conditionsFile" val="practice_trial.xlsx" valType="str" updates="None"/>\u000a      <Param name="name" val="practice_trial" valType="code" updates="None"/>\u000a      <Param name="isTrials" val="True" valType="bool" updates="None"/>\u000a      <Param name="random seed" val="" valType="code" updates="None"/>\u000a      <Param name="loopType" val="random" valType="str" updates="None"/>\u000a      <Param name="nReps" val="1" valType="code" updates="None"/>\u000a      <Param name="endPoints" val="[0, 1]" valType="num" updates="None"/>\u000a      <Param name="conditions" val="[{u'stimuli': u'beat_0.wav'}, {u'stimuli': u'beat_1.wav'}, {u'stimuli': u'beat_9.wav'}, {u'stimuli': u'beat_10.wav'}]" valType="str" updates="None"/>\u000a      <Param name="Selected rows" val="" valType="code" updates="None"/>\u000a    </LoopInitiator>\u000a    <Routine name="practice"/>\u000a    <Routine name="msg"/>\u000a    <LoopTerminator name="practice_trial"/>\u000a    <Routine name="got_it"/>\u000a    <LoopInitiator loopType="TrialHandler" name="trials">\u000a      <Param name="conditionsFile" val="trial.xlsx" valType="str" updates="None"/>\u000a      <Param name="name" val="trials" valType="code" updates="None"/>\u000a      <Param name="isTrials" val="True" valType="bool" updates="None"/>\u000a      <Param name="random seed" val="" valType="code" updates="None"/>\u000a      <Param name="loopType" val="random" valType="str" updates="None"/>\u000a      <Param name="nReps" val="3" valType="code" updates="None"/>\u000a      <Param name="endPoints" val="[0, 1]" valType="num" updates="None"/>\u000a      <Param name="conditions" val="[{u'stimuli': u'beat_0.wav'}, {u'stimuli': u'beat_1.wav'}, {u'stimuli': u'beat_2.wav'}, {u'stimuli': u'beat_3.wav'}, {u'stimuli': u'beat_4.wav'}, {u'stimuli': u'beat_5.wav'}, {u'stimuli': u'beat_6.wav'}, {u'stimuli': u'beat_7.wav'}, {u'stimuli': u'beat_8.wav'}, {u'stimuli': u'beat_9.wav'}, {u'stimuli': u'beat_10.wav'}]" valType="str" updates="None"/>\u000a      <Param name="Selected rows" val="" valType="code" updates="None"/>\u000a    </LoopInitiator>\u000a    <Routine name="Break"/>\u000a    <Routine name="trial"/>\u000a    <Routine name="msg2"/>\u000a    <LoopTerminator name="trials"/>\u000a    <Routine name="end"/>\u000a  </Flow>\u000a</PsychoPy2experiment>\u000a
p523
sg38
(lp524
sg45
I191157360
sg11
S'practice_trial'
p525
sg6
g7
sg47
I1
sg17
I01
sg18
g19
sg48
g1
(g49
g40
(dp526
g51
g52
(g53
g54
g55
S'b'
tRp527
(I1
(I8
I1
tg57
I00
S'\x00\x00\x80?\x00\x00\x80?\x00\x00\x80?\x00\x00\x80?\x00\x00\x80?\x00\x00\x80?\x00\x00\x80?\x00\x00\x80?'
S'\x00\x00\x00\x00\x00\x00\x00\x00'
Ntbsg15
g71
(g54
(I0
tS'b'
tRp528
(I1
(I8
I1
tg24
(S'O4'
I0
I1
tRp529
(I3
S'|'
NNNI-1
I-1
I63
tbI00
(lp530
g456
ag464
ag480
ag512
ag472
ag488
ag496
ag504
atbsg58
g52
(g53
g54
g55
S'b'
tRp531
(I1
(I8
I1
tg57
I00
S'\x00\x00\x00\x00\x00\x00\x80?\x00\x00@@\x00\x00\xe0@\x00\x00\x00@\x00\x00\x80@\x00\x00\xa0@\x00\x00\xc0@'
S'\x00\x00\x00\x00\x00\x00\x00\x00'
Ntbsg16
g52
(g53
g54
g55
S'b'
tRp532
(I1
(I8
I1
tg57
I00
S'\x80\xd1\xe6>@\xa3\x10?\xac\xf7{?l\xb5+?\xf4dV?\xc8\xccY?,\xd5a?\xfe\x0c\xaf?'
S'\x00\x00\x00\x00\x00\x00\x00\x00'
NtbstRp533
(dp534
g62
(dp535
g51
I01
sg15
I00
sg58
I01
sg16
I01
ssg46
g521
sg64
(lp536
g51
ag58
ag15
ag16
asg66
(lp537
I8
aI1
asbsg68
g69
sg70
g71
(g54
(I0
tS'b'
tRp538
(I1
(I8
I1
tg73
I01
S'\x00\x00\x00\x00\x01\x00\x00\x00\x04\x00\x00\x00\x02\x00\x00\x00\x05\x00\x00\x00\x06\x00\x00\x00\x07\x00\x00\x00\x03\x00\x00\x00'
tbsg74
I01
sg75
I1
sg76
I-1
sg77
(lp539
g1
(g39
g40
(dp540
g452
g458
stRp541
ag1
(g39
g40
(dp542
g452
g466
stRp543
ag1
(g39
g40
(dp544
g452
g482
stRp545
ag1
(g39
g40
(dp546
g452
g514
stRp547
ag1
(g39
g40
(dp548
g452
g474
stRp549
ag1
(g39
g40
(dp550
g452
g490
stRp551
ag1
(g39
g40
(dp552
g452
g498
stRp553
ag1
(g39
g40
(dp554
g452
g506
stRp555
asg439
Nsg440
g516
sg442
I8
sg443
I0
sg444
I8
sg445
I01
sbag34
asS'savePickle'
p556
I01
sb.